Component: ARM Compiler 5.06 update 5 (build 528) Tool: armlink [4d35e2]

==============================================================================

Section Cross References

    system_stm32f10x.o(i.SetSysClock) refers to system_stm32f10x.o(i.SetSysClockTo72) for SetSysClockTo72
    system_stm32f10x.o(i.SystemCoreClockUpdate) refers to system_stm32f10x.o(.data) for SystemCoreClock
    system_stm32f10x.o(i.SystemInit) refers to system_stm32f10x.o(i.SetSysClock) for SetSysClock
    startup_stm32f10x_md.o(RESET) refers to startup_stm32f10x_md.o(STACK) for __initial_sp
    startup_stm32f10x_md.o(RESET) refers to startup_stm32f10x_md.o(.text) for Reset_Handler
    startup_stm32f10x_md.o(RESET) refers to stm32f10x_it.o(i.NMI_Handler) for NMI_Handler
    startup_stm32f10x_md.o(RESET) refers to stm32f10x_it.o(i.HardFault_Handler) for HardFault_Handler
    startup_stm32f10x_md.o(RESET) refers to stm32f10x_it.o(i.MemManage_Handler) for MemManage_Handler
    startup_stm32f10x_md.o(RESET) refers to stm32f10x_it.o(i.BusFault_Handler) for BusFault_Handler
    startup_stm32f10x_md.o(RESET) refers to stm32f10x_it.o(i.UsageFault_Handler) for UsageFault_Handler
    startup_stm32f10x_md.o(RESET) refers to stm32f10x_it.o(i.SVC_Handler) for SVC_Handler
    startup_stm32f10x_md.o(RESET) refers to stm32f10x_it.o(i.DebugMon_Handler) for DebugMon_Handler
    startup_stm32f10x_md.o(RESET) refers to stm32f10x_it.o(i.PendSV_Handler) for PendSV_Handler
    startup_stm32f10x_md.o(RESET) refers to stm32f10x_it.o(i.SysTick_Handler) for SysTick_Handler
    startup_stm32f10x_md.o(RESET) refers to _28byj48.o(i.TIM1_UP_IRQHandler) for TIM1_UP_IRQHandler
    startup_stm32f10x_md.o(RESET) refers to dth11.o(i.TIM3_IRQHandler) for TIM3_IRQHandler
    startup_stm32f10x_md.o(RESET) refers to serial.o(i.USART1_IRQHandler) for USART1_IRQHandler
    startup_stm32f10x_md.o(.text) refers to system_stm32f10x.o(i.SystemInit) for SystemInit
    startup_stm32f10x_md.o(.text) refers to entry.o(.ARM.Collect$$$$00000000) for __main
    stm32f10x_adc.o(i.ADC_DeInit) refers to stm32f10x_rcc.o(i.RCC_APB2PeriphResetCmd) for RCC_APB2PeriphResetCmd
    stm32f10x_bkp.o(i.BKP_DeInit) refers to stm32f10x_rcc.o(i.RCC_BackupResetCmd) for RCC_BackupResetCmd
    stm32f10x_can.o(i.CAN_DeInit) refers to stm32f10x_rcc.o(i.RCC_APB1PeriphResetCmd) for RCC_APB1PeriphResetCmd
    stm32f10x_can.o(i.CAN_GetITStatus) refers to stm32f10x_can.o(i.CheckITStatus) for CheckITStatus
    stm32f10x_cec.o(i.CEC_DeInit) refers to stm32f10x_rcc.o(i.RCC_APB1PeriphResetCmd) for RCC_APB1PeriphResetCmd
    stm32f10x_dac.o(i.DAC_DeInit) refers to stm32f10x_rcc.o(i.RCC_APB1PeriphResetCmd) for RCC_APB1PeriphResetCmd
    stm32f10x_flash.o(i.FLASH_EnableWriteProtection) refers to stm32f10x_flash.o(i.FLASH_WaitForLastOperation) for FLASH_WaitForLastOperation
    stm32f10x_flash.o(i.FLASH_EraseAllBank1Pages) refers to stm32f10x_flash.o(i.FLASH_WaitForLastBank1Operation) for FLASH_WaitForLastBank1Operation
    stm32f10x_flash.o(i.FLASH_EraseAllPages) refers to stm32f10x_flash.o(i.FLASH_WaitForLastOperation) for FLASH_WaitForLastOperation
    stm32f10x_flash.o(i.FLASH_EraseOptionBytes) refers to stm32f10x_flash.o(i.FLASH_GetReadOutProtectionStatus) for FLASH_GetReadOutProtectionStatus
    stm32f10x_flash.o(i.FLASH_EraseOptionBytes) refers to stm32f10x_flash.o(i.FLASH_WaitForLastOperation) for FLASH_WaitForLastOperation
    stm32f10x_flash.o(i.FLASH_ErasePage) refers to stm32f10x_flash.o(i.FLASH_WaitForLastOperation) for FLASH_WaitForLastOperation
    stm32f10x_flash.o(i.FLASH_ProgramHalfWord) refers to stm32f10x_flash.o(i.FLASH_WaitForLastOperation) for FLASH_WaitForLastOperation
    stm32f10x_flash.o(i.FLASH_ProgramOptionByteData) refers to stm32f10x_flash.o(i.FLASH_WaitForLastOperation) for FLASH_WaitForLastOperation
    stm32f10x_flash.o(i.FLASH_ProgramWord) refers to stm32f10x_flash.o(i.FLASH_WaitForLastOperation) for FLASH_WaitForLastOperation
    stm32f10x_flash.o(i.FLASH_ReadOutProtection) refers to stm32f10x_flash.o(i.FLASH_WaitForLastOperation) for FLASH_WaitForLastOperation
    stm32f10x_flash.o(i.FLASH_UserOptionByteConfig) refers to stm32f10x_flash.o(i.FLASH_WaitForLastOperation) for FLASH_WaitForLastOperation
    stm32f10x_flash.o(i.FLASH_WaitForLastBank1Operation) refers to stm32f10x_flash.o(i.FLASH_GetBank1Status) for FLASH_GetBank1Status
    stm32f10x_flash.o(i.FLASH_WaitForLastOperation) refers to stm32f10x_flash.o(i.FLASH_GetBank1Status) for FLASH_GetBank1Status
    stm32f10x_gpio.o(i.GPIO_AFIODeInit) refers to stm32f10x_rcc.o(i.RCC_APB2PeriphResetCmd) for RCC_APB2PeriphResetCmd
    stm32f10x_gpio.o(i.GPIO_DeInit) refers to stm32f10x_rcc.o(i.RCC_APB2PeriphResetCmd) for RCC_APB2PeriphResetCmd
    stm32f10x_i2c.o(i.I2C_DeInit) refers to stm32f10x_rcc.o(i.RCC_APB1PeriphResetCmd) for RCC_APB1PeriphResetCmd
    stm32f10x_i2c.o(i.I2C_Init) refers to stm32f10x_rcc.o(i.RCC_GetClocksFreq) for RCC_GetClocksFreq
    stm32f10x_pwr.o(i.PWR_DeInit) refers to stm32f10x_rcc.o(i.RCC_APB1PeriphResetCmd) for RCC_APB1PeriphResetCmd
    stm32f10x_rcc.o(i.RCC_GetClocksFreq) refers to stm32f10x_rcc.o(.data) for APBAHBPrescTable
    stm32f10x_rcc.o(i.RCC_WaitForHSEStartUp) refers to stm32f10x_rcc.o(i.RCC_GetFlagStatus) for RCC_GetFlagStatus
    stm32f10x_rtc.o(i.RTC_SetAlarm) refers to stm32f10x_rtc.o(i.RTC_EnterConfigMode) for RTC_EnterConfigMode
    stm32f10x_rtc.o(i.RTC_SetAlarm) refers to stm32f10x_rtc.o(i.RTC_ExitConfigMode) for RTC_ExitConfigMode
    stm32f10x_rtc.o(i.RTC_SetCounter) refers to stm32f10x_rtc.o(i.RTC_EnterConfigMode) for RTC_EnterConfigMode
    stm32f10x_rtc.o(i.RTC_SetCounter) refers to stm32f10x_rtc.o(i.RTC_ExitConfigMode) for RTC_ExitConfigMode
    stm32f10x_rtc.o(i.RTC_SetPrescaler) refers to stm32f10x_rtc.o(i.RTC_EnterConfigMode) for RTC_EnterConfigMode
    stm32f10x_rtc.o(i.RTC_SetPrescaler) refers to stm32f10x_rtc.o(i.RTC_ExitConfigMode) for RTC_ExitConfigMode
    stm32f10x_spi.o(i.I2S_Init) refers to stm32f10x_rcc.o(i.RCC_GetClocksFreq) for RCC_GetClocksFreq
    stm32f10x_spi.o(i.SPI_I2S_DeInit) refers to stm32f10x_rcc.o(i.RCC_APB2PeriphResetCmd) for RCC_APB2PeriphResetCmd
    stm32f10x_spi.o(i.SPI_I2S_DeInit) refers to stm32f10x_rcc.o(i.RCC_APB1PeriphResetCmd) for RCC_APB1PeriphResetCmd
    stm32f10x_tim.o(i.TIM_DeInit) refers to stm32f10x_rcc.o(i.RCC_APB2PeriphResetCmd) for RCC_APB2PeriphResetCmd
    stm32f10x_tim.o(i.TIM_DeInit) refers to stm32f10x_rcc.o(i.RCC_APB1PeriphResetCmd) for RCC_APB1PeriphResetCmd
    stm32f10x_tim.o(i.TIM_ETRClockMode1Config) refers to stm32f10x_tim.o(i.TIM_ETRConfig) for TIM_ETRConfig
    stm32f10x_tim.o(i.TIM_ETRClockMode2Config) refers to stm32f10x_tim.o(i.TIM_ETRConfig) for TIM_ETRConfig
    stm32f10x_tim.o(i.TIM_ICInit) refers to stm32f10x_tim.o(i.TI1_Config) for TI1_Config
    stm32f10x_tim.o(i.TIM_ICInit) refers to stm32f10x_tim.o(i.TIM_SetIC1Prescaler) for TIM_SetIC1Prescaler
    stm32f10x_tim.o(i.TIM_ICInit) refers to stm32f10x_tim.o(i.TI2_Config) for TI2_Config
    stm32f10x_tim.o(i.TIM_ICInit) refers to stm32f10x_tim.o(i.TIM_SetIC2Prescaler) for TIM_SetIC2Prescaler
    stm32f10x_tim.o(i.TIM_ICInit) refers to stm32f10x_tim.o(i.TI3_Config) for TI3_Config
    stm32f10x_tim.o(i.TIM_ICInit) refers to stm32f10x_tim.o(i.TIM_SetIC3Prescaler) for TIM_SetIC3Prescaler
    stm32f10x_tim.o(i.TIM_ICInit) refers to stm32f10x_tim.o(i.TI4_Config) for TI4_Config
    stm32f10x_tim.o(i.TIM_ICInit) refers to stm32f10x_tim.o(i.TIM_SetIC4Prescaler) for TIM_SetIC4Prescaler
    stm32f10x_tim.o(i.TIM_ITRxExternalClockConfig) refers to stm32f10x_tim.o(i.TIM_SelectInputTrigger) for TIM_SelectInputTrigger
    stm32f10x_tim.o(i.TIM_PWMIConfig) refers to stm32f10x_tim.o(i.TI1_Config) for TI1_Config
    stm32f10x_tim.o(i.TIM_PWMIConfig) refers to stm32f10x_tim.o(i.TIM_SetIC1Prescaler) for TIM_SetIC1Prescaler
    stm32f10x_tim.o(i.TIM_PWMIConfig) refers to stm32f10x_tim.o(i.TI2_Config) for TI2_Config
    stm32f10x_tim.o(i.TIM_PWMIConfig) refers to stm32f10x_tim.o(i.TIM_SetIC2Prescaler) for TIM_SetIC2Prescaler
    stm32f10x_tim.o(i.TIM_TIxExternalClockConfig) refers to stm32f10x_tim.o(i.TI2_Config) for TI2_Config
    stm32f10x_tim.o(i.TIM_TIxExternalClockConfig) refers to stm32f10x_tim.o(i.TI1_Config) for TI1_Config
    stm32f10x_tim.o(i.TIM_TIxExternalClockConfig) refers to stm32f10x_tim.o(i.TIM_SelectInputTrigger) for TIM_SelectInputTrigger
    stm32f10x_usart.o(i.USART_DeInit) refers to stm32f10x_rcc.o(i.RCC_APB2PeriphResetCmd) for RCC_APB2PeriphResetCmd
    stm32f10x_usart.o(i.USART_DeInit) refers to stm32f10x_rcc.o(i.RCC_APB1PeriphResetCmd) for RCC_APB1PeriphResetCmd
    stm32f10x_usart.o(i.USART_Init) refers to stm32f10x_rcc.o(i.RCC_GetClocksFreq) for RCC_GetClocksFreq
    stm32f10x_wwdg.o(i.WWDG_DeInit) refers to stm32f10x_rcc.o(i.RCC_APB1PeriphResetCmd) for RCC_APB1PeriphResetCmd
    delay.o(i.Delay_ms) refers to delay.o(i.Delay_us) for Delay_us
    delay.o(i.Delay_s) refers to delay.o(i.Delay_ms) for Delay_ms
    myrtc.o(i.MyRTC_Init) refers to stm32f10x_rcc.o(i.RCC_APB1PeriphClockCmd) for RCC_APB1PeriphClockCmd
    myrtc.o(i.MyRTC_Init) refers to stm32f10x_pwr.o(i.PWR_BackupAccessCmd) for PWR_BackupAccessCmd
    myrtc.o(i.MyRTC_Init) refers to stm32f10x_bkp.o(i.BKP_ReadBackupRegister) for BKP_ReadBackupRegister
    myrtc.o(i.MyRTC_Init) refers to stm32f10x_rcc.o(i.RCC_LSEConfig) for RCC_LSEConfig
    myrtc.o(i.MyRTC_Init) refers to stm32f10x_rcc.o(i.RCC_GetFlagStatus) for RCC_GetFlagStatus
    myrtc.o(i.MyRTC_Init) refers to stm32f10x_rcc.o(i.RCC_RTCCLKConfig) for RCC_RTCCLKConfig
    myrtc.o(i.MyRTC_Init) refers to stm32f10x_rcc.o(i.RCC_RTCCLKCmd) for RCC_RTCCLKCmd
    myrtc.o(i.MyRTC_Init) refers to stm32f10x_rtc.o(i.RTC_WaitForSynchro) for RTC_WaitForSynchro
    myrtc.o(i.MyRTC_Init) refers to stm32f10x_rtc.o(i.RTC_WaitForLastTask) for RTC_WaitForLastTask
    myrtc.o(i.MyRTC_Init) refers to stm32f10x_rtc.o(i.RTC_SetPrescaler) for RTC_SetPrescaler
    myrtc.o(i.MyRTC_Init) refers to myrtc.o(i.MyRTC_SetTime) for MyRTC_SetTime
    myrtc.o(i.MyRTC_Init) refers to stm32f10x_bkp.o(i.BKP_WriteBackupRegister) for BKP_WriteBackupRegister
    myrtc.o(i.MyRTC_ReadTime) refers to stm32f10x_rtc.o(i.RTC_GetCounter) for RTC_GetCounter
    myrtc.o(i.MyRTC_ReadTime) refers to localtime_w.o(.text) for localtime
    myrtc.o(i.MyRTC_ReadTime) refers to memmovea.o(.text) for __aeabi_memcpy4
    myrtc.o(i.MyRTC_ReadTime) refers to myrtc.o(.data) for MyRTC_Time
    myrtc.o(i.MyRTC_SetTime) refers to mktime.o(.text) for mktime
    myrtc.o(i.MyRTC_SetTime) refers to stm32f10x_rtc.o(i.RTC_SetCounter) for RTC_SetCounter
    myrtc.o(i.MyRTC_SetTime) refers to stm32f10x_rtc.o(i.RTC_WaitForLastTask) for RTC_WaitForLastTask
    myrtc.o(i.MyRTC_SetTime) refers to myrtc.o(.data) for MyRTC_Time
    key.o(i.KeyNum_Get) refers to stm32f10x_gpio.o(i.GPIO_ReadInputDataBit) for GPIO_ReadInputDataBit
    key.o(i.KeyNum_Get) refers to delay.o(i.Delay_ms) for Delay_ms
    key.o(i.Key_Init) refers to stm32f10x_rcc.o(i.RCC_APB2PeriphClockCmd) for RCC_APB2PeriphClockCmd
    key.o(i.Key_Init) refers to stm32f10x_gpio.o(i.GPIO_Init) for GPIO_Init
    led.o(i.LED_Control) refers to led.o(i.LED_SetStrength) for LED_SetStrength
    led.o(i.LED_Control) refers to led.o(.data) for light_status
    led.o(i.LED_Init) refers to stm32f10x_rcc.o(i.RCC_APB2PeriphClockCmd) for RCC_APB2PeriphClockCmd
    led.o(i.LED_Init) refers to stm32f10x_gpio.o(i.GPIO_Init) for GPIO_Init
    led.o(i.LED_Init) refers to pwm.o(i.PWM_Init) for PWM_Init
    led.o(i.LED_SetStrength) refers to pwm.o(i.PWM_SetCompare4) for PWM_SetCompare4
    oled.o(i.OLED_Clear) refers to oled.o(i.OLED_SetCursor) for OLED_SetCursor
    oled.o(i.OLED_Clear) refers to oled.o(i.OLED_WriteData) for OLED_WriteData
    oled.o(i.OLED_I2C_Init) refers to stm32f10x_rcc.o(i.RCC_APB2PeriphClockCmd) for RCC_APB2PeriphClockCmd
    oled.o(i.OLED_I2C_Init) refers to stm32f10x_gpio.o(i.GPIO_Init) for GPIO_Init
    oled.o(i.OLED_I2C_Init) refers to stm32f10x_gpio.o(i.GPIO_WriteBit) for GPIO_WriteBit
    oled.o(i.OLED_I2C_SendByte) refers to stm32f10x_gpio.o(i.GPIO_WriteBit) for GPIO_WriteBit
    oled.o(i.OLED_I2C_Start) refers to stm32f10x_gpio.o(i.GPIO_WriteBit) for GPIO_WriteBit
    oled.o(i.OLED_I2C_Stop) refers to stm32f10x_gpio.o(i.GPIO_WriteBit) for GPIO_WriteBit
    oled.o(i.OLED_Init) refers to oled.o(i.OLED_I2C_Init) for OLED_I2C_Init
    oled.o(i.OLED_Init) refers to oled.o(i.OLED_WriteCommand) for OLED_WriteCommand
    oled.o(i.OLED_Init) refers to oled.o(i.OLED_Clear) for OLED_Clear
    oled.o(i.OLED_SetCursor) refers to oled.o(i.OLED_WriteCommand) for OLED_WriteCommand
    oled.o(i.OLED_ShowBinNum) refers to oled.o(i.OLED_Pow) for OLED_Pow
    oled.o(i.OLED_ShowBinNum) refers to oled.o(i.OLED_ShowChar) for OLED_ShowChar
    oled.o(i.OLED_ShowChar) refers to oled.o(i.OLED_SetCursor) for OLED_SetCursor
    oled.o(i.OLED_ShowChar) refers to oled.o(i.OLED_WriteData) for OLED_WriteData
    oled.o(i.OLED_ShowChar) refers to oled.o(.constdata) for OLED_F8x16
    oled.o(i.OLED_ShowHexNum) refers to oled.o(i.OLED_Pow) for OLED_Pow
    oled.o(i.OLED_ShowHexNum) refers to oled.o(i.OLED_ShowChar) for OLED_ShowChar
    oled.o(i.OLED_ShowNum) refers to oled.o(i.OLED_Pow) for OLED_Pow
    oled.o(i.OLED_ShowNum) refers to oled.o(i.OLED_ShowChar) for OLED_ShowChar
    oled.o(i.OLED_ShowSignedNum) refers to oled.o(i.OLED_ShowChar) for OLED_ShowChar
    oled.o(i.OLED_ShowSignedNum) refers to oled.o(i.OLED_Pow) for OLED_Pow
    oled.o(i.OLED_ShowString) refers to oled.o(i.OLED_ShowChar) for OLED_ShowChar
    oled.o(i.OLED_WriteCommand) refers to oled.o(i.OLED_I2C_Start) for OLED_I2C_Start
    oled.o(i.OLED_WriteCommand) refers to oled.o(i.OLED_I2C_SendByte) for OLED_I2C_SendByte
    oled.o(i.OLED_WriteCommand) refers to oled.o(i.OLED_I2C_Stop) for OLED_I2C_Stop
    oled.o(i.OLED_WriteData) refers to oled.o(i.OLED_I2C_Start) for OLED_I2C_Start
    oled.o(i.OLED_WriteData) refers to oled.o(i.OLED_I2C_SendByte) for OLED_I2C_SendByte
    oled.o(i.OLED_WriteData) refers to oled.o(i.OLED_I2C_Stop) for OLED_I2C_Stop
    serial.o(i.Serial_GetRxFlag) refers to serial.o(.data) for Serial_RxFlag
    serial.o(i.Serial_Init) refers to stm32f10x_rcc.o(i.RCC_APB2PeriphClockCmd) for RCC_APB2PeriphClockCmd
    serial.o(i.Serial_Init) refers to stm32f10x_gpio.o(i.GPIO_Init) for GPIO_Init
    serial.o(i.Serial_Init) refers to stm32f10x_usart.o(i.USART_Init) for USART_Init
    serial.o(i.Serial_Init) refers to stm32f10x_usart.o(i.USART_ITConfig) for USART_ITConfig
    serial.o(i.Serial_Init) refers to misc.o(i.NVIC_PriorityGroupConfig) for NVIC_PriorityGroupConfig
    serial.o(i.Serial_Init) refers to misc.o(i.NVIC_Init) for NVIC_Init
    serial.o(i.Serial_Init) refers to stm32f10x_usart.o(i.USART_Cmd) for USART_Cmd
    serial.o(i.Serial_OledShowString) refers to oled.o(i.OLED_ShowChar) for OLED_ShowChar
    serial.o(i.Serial_RxFromEspBuf_Clear) refers to memseta.o(.text) for __aeabi_memclr
    serial.o(i.Serial_RxFromEspBuf_Clear) refers to serial.o(.data) for Serial_RxFlag
    serial.o(i.Serial_RxFromEspBuf_Clear) refers to serial.o(.bss) for Serial_RxFromEspBuf
    serial.o(i.Serial_SendArray) refers to serial.o(i.Serial_SendByte) for Serial_SendByte
    serial.o(i.Serial_SendByte) refers to stm32f10x_usart.o(i.USART_SendData) for USART_SendData
    serial.o(i.Serial_SendByte) refers to stm32f10x_usart.o(i.USART_GetFlagStatus) for USART_GetFlagStatus
    serial.o(i.Serial_SendNumber) refers to serial.o(i.Serial_Pow) for Serial_Pow
    serial.o(i.Serial_SendNumber) refers to serial.o(i.Serial_SendByte) for Serial_SendByte
    serial.o(i.Serial_SendString) refers to serial.o(i.Serial_SendByte) for Serial_SendByte
    serial.o(i.USART1_IRQHandler) refers to stm32f10x_usart.o(i.USART_GetITStatus) for USART_GetITStatus
    serial.o(i.USART1_IRQHandler) refers to stm32f10x_usart.o(i.USART_ReceiveData) for USART_ReceiveData
    serial.o(i.USART1_IRQHandler) refers to strlen.o(.text) for strlen
    serial.o(i.USART1_IRQHandler) refers to strcat.o(.text) for strcat
    serial.o(i.USART1_IRQHandler) refers to memseta.o(.text) for __aeabi_memclr
    serial.o(i.USART1_IRQHandler) refers to stm32f10x_usart.o(i.USART_ClearITPendingBit) for USART_ClearITPendingBit
    serial.o(i.USART1_IRQHandler) refers to serial.o(.data) for pRx_State
    serial.o(i.USART1_IRQHandler) refers to serial.o(.bss) for Rx_Temp
    esp8266.o(i.Esp8266_Init) refers to serial.o(i.Serial_Init) for Serial_Init
    esp8266.o(i.Esp8266_ModeNetSet) refers to esp8266.o(i.Esp8266_WriteCmd) for Esp8266_WriteCmd
    esp8266.o(i.Esp8266_ModeNetSet) refers to oled.o(i.OLED_Clear) for OLED_Clear
    esp8266.o(i.Esp8266_ModeNetSet) refers to oled.o(i.OLED_ShowString) for OLED_ShowString
    esp8266.o(i.Esp8266_ModeNetSet) refers to delay.o(i.Delay_ms) for Delay_ms
    esp8266.o(i.Esp8266_ModeNetSet) refers to delay.o(i.Delay_s) for Delay_s
    esp8266.o(i.Esp8266_ModeNetSet) refers to esp8266.o(.conststring) for .conststring
    esp8266.o(i.Esp8266_Mqtt_Connect) refers to esp8266.o(i.Esp8266_detect) for Esp8266_detect
    esp8266.o(i.Esp8266_Mqtt_Connect) refers to esp8266.o(i.Esp8266_ModeNetSet) for Esp8266_ModeNetSet
    esp8266.o(i.Esp8266_WriteCmd) refers to strlen.o(.text) for strlen
    esp8266.o(i.Esp8266_WriteCmd) refers to malloc.o(i.malloc) for malloc
    esp8266.o(i.Esp8266_WriteCmd) refers to strcpy.o(.text) for strcpy
    esp8266.o(i.Esp8266_WriteCmd) refers to strcat.o(.text) for strcat
    esp8266.o(i.Esp8266_WriteCmd) refers to serial.o(i.Serial_SendString) for Serial_SendString
    esp8266.o(i.Esp8266_WriteCmd) refers to delay.o(i.Delay_ms) for Delay_ms
    esp8266.o(i.Esp8266_WriteCmd) refers to serial.o(i.Serial_OledShowString) for Serial_OledShowString
    esp8266.o(i.Esp8266_WriteCmd) refers to delay.o(i.Delay_s) for Delay_s
    esp8266.o(i.Esp8266_WriteCmd) refers to strstr.o(.text) for strstr
    esp8266.o(i.Esp8266_WriteCmd) refers to serial.o(i.Serial_RxFromEspBuf_Clear) for Serial_RxFromEspBuf_Clear
    esp8266.o(i.Esp8266_WriteCmd) refers to malloc.o(i.free) for free
    esp8266.o(i.Esp8266_WriteCmd) refers to serial.o(.bss) for Serial_RxFromEspBuf
    esp8266.o(i.Esp8266_detect) refers to esp8266.o(i.Esp8266_WriteCmd) for Esp8266_WriteCmd
    esp8266.o(i.Esp8266_detect) refers to oled.o(i.OLED_Clear) for OLED_Clear
    esp8266.o(i.Esp8266_detect) refers to oled.o(i.OLED_ShowString) for OLED_ShowString
    dth11.o(i.Dth11_Init) refers to ic.o(i.IC_Init) for IC_Init
    dth11.o(i.Dth11_OLED_Show) refers to oled.o(i.OLED_ShowNum) for OLED_ShowNum
    dth11.o(i.Dth11_OLED_Show) refers to dth11.o(.bss) for lst_pulse_perid
    dth11.o(i.Dth11_Read) refers to stm32f10x_gpio.o(i.GPIO_Init) for GPIO_Init
    dth11.o(i.Dth11_Read) refers to stm32f10x_gpio.o(i.GPIO_SetBits) for GPIO_SetBits
    dth11.o(i.Dth11_Read) refers to stm32f10x_gpio.o(i.GPIO_ResetBits) for GPIO_ResetBits
    dth11.o(i.Dth11_Read) refers to delay.o(i.Delay_ms) for Delay_ms
    dth11.o(i.Dth11_Read) refers to dth11.o(i.Pow) for Pow
    dth11.o(i.Dth11_Read) refers to dfltui.o(.text) for __aeabi_ui2d
    dth11.o(i.Dth11_Read) refers to ddiv.o(.text) for __aeabi_ddiv
    dth11.o(i.Dth11_Read) refers to dadd.o(.text) for __aeabi_dadd
    dth11.o(i.Dth11_Read) refers to d2f.o(.text) for __aeabi_d2f
    dth11.o(i.Dth11_Read) refers to fmul.o(.text) for __aeabi_fmul
    dth11.o(i.Dth11_Read) refers to ffixui.o(.text) for __aeabi_f2uiz
    dth11.o(i.Dth11_Read) refers to ffltui.o(.text) for __aeabi_ui2f
    dth11.o(i.Dth11_Read) refers to memseta.o(.text) for __aeabi_memclr
    dth11.o(i.Dth11_Read) refers to dth11.o(.data) for i
    dth11.o(i.Dth11_Read) refers to dth11.o(.bss) for lst_pulse_perid
    dth11.o(i.TIM3_IRQHandler) refers to stm32f10x_tim.o(i.TIM_GetITStatus) for TIM_GetITStatus
    dth11.o(i.TIM3_IRQHandler) refers to stm32f10x_tim.o(i.TIM_GetCapture1) for TIM_GetCapture1
    dth11.o(i.TIM3_IRQHandler) refers to stm32f10x_tim.o(i.TIM_ClearITPendingBit) for TIM_ClearITPendingBit
    dth11.o(i.TIM3_IRQHandler) refers to dth11.o(.bss) for lst_pulse_perid
    dth11.o(i.TIM3_IRQHandler) refers to dth11.o(.data) for i
    ic.o(i.IC_Init) refers to stm32f10x_rcc.o(i.RCC_APB1PeriphClockCmd) for RCC_APB1PeriphClockCmd
    ic.o(i.IC_Init) refers to stm32f10x_rcc.o(i.RCC_APB2PeriphClockCmd) for RCC_APB2PeriphClockCmd
    ic.o(i.IC_Init) refers to stm32f10x_gpio.o(i.GPIO_Init) for GPIO_Init
    ic.o(i.IC_Init) refers to stm32f10x_tim.o(i.TIM_InternalClockConfig) for TIM_InternalClockConfig
    ic.o(i.IC_Init) refers to stm32f10x_tim.o(i.TIM_TimeBaseInit) for TIM_TimeBaseInit
    ic.o(i.IC_Init) refers to stm32f10x_tim.o(i.TIM_PWMIConfig) for TIM_PWMIConfig
    ic.o(i.IC_Init) refers to stm32f10x_tim.o(i.TIM_SelectInputTrigger) for TIM_SelectInputTrigger
    ic.o(i.IC_Init) refers to stm32f10x_tim.o(i.TIM_SelectSlaveMode) for TIM_SelectSlaveMode
    ic.o(i.IC_Init) refers to misc.o(i.NVIC_Init) for NVIC_Init
    ic.o(i.IC_Init) refers to stm32f10x_tim.o(i.TIM_ITConfig) for TIM_ITConfig
    ic.o(i.IC_Init) refers to stm32f10x_tim.o(i.TIM_Cmd) for TIM_Cmd
    motor.o(i.Motor_Control) refers to motor.o(i.Motor_SetSpeed) for Motor_SetSpeed
    motor.o(i.Motor_Control) refers to motor.o(.data) for fan_status
    motor.o(i.Motor_Init) refers to stm32f10x_rcc.o(i.RCC_APB2PeriphClockCmd) for RCC_APB2PeriphClockCmd
    motor.o(i.Motor_Init) refers to stm32f10x_gpio.o(i.GPIO_Init) for GPIO_Init
    motor.o(i.Motor_Init) refers to pwm.o(i.PWM_Init) for PWM_Init
    motor.o(i.Motor_SetSpeed) refers to pwm.o(i.PWM_SetCompare3) for PWM_SetCompare3
    pwm.o(i.PWM_Init) refers to stm32f10x_rcc.o(i.RCC_APB1PeriphClockCmd) for RCC_APB1PeriphClockCmd
    pwm.o(i.PWM_Init) refers to stm32f10x_rcc.o(i.RCC_APB2PeriphClockCmd) for RCC_APB2PeriphClockCmd
    pwm.o(i.PWM_Init) refers to stm32f10x_gpio.o(i.GPIO_Init) for GPIO_Init
    pwm.o(i.PWM_Init) refers to stm32f10x_tim.o(i.TIM_InternalClockConfig) for TIM_InternalClockConfig
    pwm.o(i.PWM_Init) refers to stm32f10x_tim.o(i.TIM_TimeBaseInit) for TIM_TimeBaseInit
    pwm.o(i.PWM_Init) refers to stm32f10x_tim.o(i.TIM_OCStructInit) for TIM_OCStructInit
    pwm.o(i.PWM_Init) refers to stm32f10x_tim.o(i.TIM_OC4Init) for TIM_OC4Init
    pwm.o(i.PWM_Init) refers to stm32f10x_tim.o(i.TIM_OC3Init) for TIM_OC3Init
    pwm.o(i.PWM_Init) refers to stm32f10x_tim.o(i.TIM_Cmd) for TIM_Cmd
    pwm.o(i.PWM_SetCompare3) refers to stm32f10x_tim.o(i.TIM_SetCompare3) for TIM_SetCompare3
    pwm.o(i.PWM_SetCompare4) refers to stm32f10x_tim.o(i.TIM_SetCompare4) for TIM_SetCompare4
    sgp30.o(i.SGP30_Init) refers to my_i2c.o(i.My_I2C_Init) for My_I2C_Init
    sgp30.o(i.SGP30_Init) refers to sgp30.o(i.SGP30_Write) for SGP30_Write
    sgp30.o(i.SGP30_Read) refers to sgp30.o(i.SGP30_Write) for SGP30_Write
    sgp30.o(i.SGP30_Read) refers to stm32f10x_i2c.o(i.I2C_GenerateSTART) for I2C_GenerateSTART
    sgp30.o(i.SGP30_Read) refers to sgp30.o(i.SGP30_WaitEvent) for SGP30_WaitEvent
    sgp30.o(i.SGP30_Read) refers to stm32f10x_i2c.o(i.I2C_Send7bitAddress) for I2C_Send7bitAddress
    sgp30.o(i.SGP30_Read) refers to stm32f10x_i2c.o(i.I2C_ReceiveData) for I2C_ReceiveData
    sgp30.o(i.SGP30_Read) refers to stm32f10x_i2c.o(i.I2C_AcknowledgeConfig) for I2C_AcknowledgeConfig
    sgp30.o(i.SGP30_Read) refers to stm32f10x_i2c.o(i.I2C_GenerateSTOP) for I2C_GenerateSTOP
    sgp30.o(i.SGP30_Read) refers to sgp30.o(.data) for SGP30_ErrorCount
    sgp30.o(i.SGP30_WaitEvent) refers to stm32f10x_i2c.o(i.I2C_CheckEvent) for I2C_CheckEvent
    sgp30.o(i.SGP30_Write) refers to stm32f10x_i2c.o(i.I2C_GenerateSTART) for I2C_GenerateSTART
    sgp30.o(i.SGP30_Write) refers to sgp30.o(i.SGP30_WaitEvent) for SGP30_WaitEvent
    sgp30.o(i.SGP30_Write) refers to stm32f10x_i2c.o(i.I2C_Send7bitAddress) for I2C_Send7bitAddress
    sgp30.o(i.SGP30_Write) refers to stm32f10x_i2c.o(i.I2C_SendData) for I2C_SendData
    sgp30.o(i.SGP30_Write) refers to stm32f10x_i2c.o(i.I2C_GenerateSTOP) for I2C_GenerateSTOP
    sgp30.o(i.SGP30_Write) refers to delay.o(i.Delay_ms) for Delay_ms
    ad.o(i.PH_AD_GetValue) refers to stm32f10x_adc.o(i.ADC_RegularChannelConfig) for ADC_RegularChannelConfig
    ad.o(i.PH_AD_GetValue) refers to stm32f10x_adc.o(i.ADC_SoftwareStartConvCmd) for ADC_SoftwareStartConvCmd
    ad.o(i.PH_AD_GetValue) refers to stm32f10x_adc.o(i.ADC_GetFlagStatus) for ADC_GetFlagStatus
    ad.o(i.PH_AD_GetValue) refers to stm32f10x_adc.o(i.ADC_GetConversionValue) for ADC_GetConversionValue
    ad.o(i.PH_AD_GetValue) refers to ad.o(.bss) for AD_VALUE_ARRAY
    ad.o(i.PH_AD_GetValue) refers to ad.o(.data) for i
    ad.o(i.PH_AD_Init) refers to stm32f10x_rcc.o(i.RCC_APB2PeriphClockCmd) for RCC_APB2PeriphClockCmd
    ad.o(i.PH_AD_Init) refers to stm32f10x_rcc.o(i.RCC_ADCCLKConfig) for RCC_ADCCLKConfig
    ad.o(i.PH_AD_Init) refers to stm32f10x_gpio.o(i.GPIO_Init) for GPIO_Init
    ad.o(i.PH_AD_Init) refers to stm32f10x_adc.o(i.ADC_Init) for ADC_Init
    ad.o(i.PH_AD_Init) refers to stm32f10x_adc.o(i.ADC_Cmd) for ADC_Cmd
    ad.o(i.PH_AD_Init) refers to stm32f10x_adc.o(i.ADC_ResetCalibration) for ADC_ResetCalibration
    ad.o(i.PH_AD_Init) refers to stm32f10x_adc.o(i.ADC_GetResetCalibrationStatus) for ADC_GetResetCalibrationStatus
    ad.o(i.PH_AD_Init) refers to stm32f10x_adc.o(i.ADC_StartCalibration) for ADC_StartCalibration
    ad.o(i.PH_AD_Init) refers to stm32f10x_adc.o(i.ADC_GetCalibrationStatus) for ADC_GetCalibrationStatus
    ad.o(i.SOIL_AD_GetValue) refers to stm32f10x_adc.o(i.ADC_RegularChannelConfig) for ADC_RegularChannelConfig
    ad.o(i.SOIL_AD_GetValue) refers to stm32f10x_adc.o(i.ADC_SoftwareStartConvCmd) for ADC_SoftwareStartConvCmd
    ad.o(i.SOIL_AD_GetValue) refers to stm32f10x_adc.o(i.ADC_GetFlagStatus) for ADC_GetFlagStatus
    ad.o(i.SOIL_AD_GetValue) refers to stm32f10x_adc.o(i.ADC_GetConversionValue) for ADC_GetConversionValue
    ad.o(i.SOIL_AD_GetValue) refers to ad.o(.bss) for AD_VALUE_ARRAY
    ad.o(i.SOIL_AD_GetValue) refers to ad.o(.data) for i
    ad.o(i.SOIL_AD_Init) refers to stm32f10x_rcc.o(i.RCC_APB2PeriphClockCmd) for RCC_APB2PeriphClockCmd
    ad.o(i.SOIL_AD_Init) refers to stm32f10x_rcc.o(i.RCC_ADCCLKConfig) for RCC_ADCCLKConfig
    ad.o(i.SOIL_AD_Init) refers to stm32f10x_gpio.o(i.GPIO_Init) for GPIO_Init
    ad.o(i.SOIL_AD_Init) refers to stm32f10x_adc.o(i.ADC_Init) for ADC_Init
    ad.o(i.SOIL_AD_Init) refers to stm32f10x_adc.o(i.ADC_Cmd) for ADC_Cmd
    ad.o(i.SOIL_AD_Init) refers to stm32f10x_adc.o(i.ADC_ResetCalibration) for ADC_ResetCalibration
    ad.o(i.SOIL_AD_Init) refers to stm32f10x_adc.o(i.ADC_GetResetCalibrationStatus) for ADC_GetResetCalibrationStatus
    ad.o(i.SOIL_AD_Init) refers to stm32f10x_adc.o(i.ADC_StartCalibration) for ADC_StartCalibration
    ad.o(i.SOIL_AD_Init) refers to stm32f10x_adc.o(i.ADC_GetCalibrationStatus) for ADC_GetCalibrationStatus
    phsensor.o(i.PhSensorValue_Get) refers to ad.o(i.PH_AD_GetValue) for PH_AD_GetValue
    phsensor.o(i.PhSensorValue_Get) refers to ffltui.o(.text) for __aeabi_ui2f
    phsensor.o(i.PhSensorValue_Get) refers to fdiv.o(.text) for __aeabi_fdiv
    phsensor.o(i.PhSensorValue_Get) refers to f2d.o(.text) for __aeabi_f2d
    phsensor.o(i.PhSensorValue_Get) refers to dmul.o(.text) for __aeabi_dmul
    phsensor.o(i.PhSensorValue_Get) refers to d2f.o(.text) for __aeabi_d2f
    phsensor.o(i.PhSensorValue_Get) refers to dadd.o(.text) for __aeabi_dadd
    phsensor.o(i.PhSensorValue_Get) refers to cdcmple.o(.text) for __aeabi_cdcmple
    phsensor.o(i.PhSensorValue_Get) refers to cdrcmple.o(.text) for __aeabi_cdrcmple
    phsensor.o(i.PhSensorValue_Get) refers to fadd.o(.text) for __aeabi_fsub
    phsensor.o(i.PhSensorValue_Get) refers to phsensor.o(.data) for ph_value
    phsensor.o(i.PhSensor_Init) refers to ad.o(i.PH_AD_Init) for PH_AD_Init
    phsensor.o(i.PhSensor_SendDataToTcp) refers to fmul.o(.text) for __aeabi_fmul
    phsensor.o(i.PhSensor_SendDataToTcp) refers to ffixui.o(.text) for __aeabi_f2uiz
    phsensor.o(i.PhSensor_SendDataToTcp) refers to dfltui.o(.text) for __aeabi_ui2d
    phsensor.o(i.PhSensor_SendDataToTcp) refers to ddiv.o(.text) for __aeabi_ddiv
    phsensor.o(i.PhSensor_SendDataToTcp) refers to d2f.o(.text) for __aeabi_d2f
    phsensor.o(i.PhSensor_SendDataToTcp) refers to f2d.o(.text) for __aeabi_f2d
    phsensor.o(i.PhSensor_SendDataToTcp) refers to pack_unpack.o(i.json_pack) for json_pack
    phsensor.o(i.PhSensor_SendDataToTcp) refers to dump.o(i.json_dumps) for json_dumps
    phsensor.o(i.PhSensor_SendDataToTcp) refers to serial.o(i.Serial_SendString) for Serial_SendString
    phsensor.o(i.PhSensor_SendDataToTcp) refers to value.o(i.json_delete) for json_delete
    phsensor.o(i.PhSensor_SendDataToTcp) refers to malloc.o(i.free) for free
    ds18b20.o(i.DS18B20_ConvertT) refers to ds18b20.o(i.DS18B20_Detect) for DS18B20_Detect
    ds18b20.o(i.DS18B20_ConvertT) refers to onewire.o(i.OneWire_SendByte) for OneWire_SendByte
    ds18b20.o(i.DS18B20_Detect) refers to onewire.o(i.OneWire_Init) for OneWire_Init
    ds18b20.o(i.DS18B20_Detect) refers to delay.o(i.Delay_us) for Delay_us
    ds18b20.o(i.DS18B20_Detect) refers to onewire.o(i.OneWire_Set_In) for OneWire_Set_In
    ds18b20.o(i.DS18B20_Detect) refers to ds18b20.o(.data) for DS18B20_ErrorCount
    ds18b20.o(i.DS18B20_Init) refers to onewire.o(i.OneWire_Init) for OneWire_Init
    ds18b20.o(i.DS18B20_Init) refers to ds18b20.o(i.DS18B20_ConvertT) for DS18B20_ConvertT
    ds18b20.o(i.DS18B20_ReadT) refers to ds18b20.o(i.DS18B20_ConvertT) for DS18B20_ConvertT
    ds18b20.o(i.DS18B20_ReadT) refers to delay.o(i.Delay_ms) for Delay_ms
    ds18b20.o(i.DS18B20_ReadT) refers to ds18b20.o(i.DS18B20_Detect) for DS18B20_Detect
    ds18b20.o(i.DS18B20_ReadT) refers to onewire.o(i.OneWire_SendByte) for OneWire_SendByte
    ds18b20.o(i.DS18B20_ReadT) refers to onewire.o(i.OneWire_ReceiveByte) for OneWire_ReceiveByte
    ds18b20.o(i.DS18B20_ReadT) refers to dfltui.o(.text) for __aeabi_ui2d
    ds18b20.o(i.DS18B20_ReadT) refers to ddiv.o(.text) for __aeabi_ddiv
    ds18b20.o(i.DS18B20_ReadT) refers to d2f.o(.text) for __aeabi_d2f
    ds18b20.o(i.DS18B20_ReadT) refers to fmul.o(.text) for __aeabi_fmul
    ds18b20.o(i.DS18B20_ReadT) refers to ffixui.o(.text) for __aeabi_f2uiz
    ds18b20.o(i.DS18B20_ReadT) refers to ds18b20.o(.data) for soil_temperature
    ds18b20.o(i.DS18B20_SendDataToTcp) refers to ds18b20.o(i.DS18B20_ConvertT) for DS18B20_ConvertT
    ds18b20.o(i.DS18B20_SendDataToTcp) refers to delay.o(i.Delay_ms) for Delay_ms
    ds18b20.o(i.DS18B20_SendDataToTcp) refers to fmul.o(.text) for __aeabi_fmul
    ds18b20.o(i.DS18B20_SendDataToTcp) refers to ffixui.o(.text) for __aeabi_f2uiz
    ds18b20.o(i.DS18B20_SendDataToTcp) refers to dfltui.o(.text) for __aeabi_ui2d
    ds18b20.o(i.DS18B20_SendDataToTcp) refers to ddiv.o(.text) for __aeabi_ddiv
    ds18b20.o(i.DS18B20_SendDataToTcp) refers to d2f.o(.text) for __aeabi_d2f
    ds18b20.o(i.DS18B20_SendDataToTcp) refers to f2d.o(.text) for __aeabi_f2d
    ds18b20.o(i.DS18B20_SendDataToTcp) refers to pack_unpack.o(i.json_pack) for json_pack
    ds18b20.o(i.DS18B20_SendDataToTcp) refers to dump.o(i.json_dumps) for json_dumps
    ds18b20.o(i.DS18B20_SendDataToTcp) refers to serial.o(i.Serial_SendString) for Serial_SendString
    ds18b20.o(i.DS18B20_SendDataToTcp) refers to value.o(i.json_delete) for json_delete
    ds18b20.o(i.DS18B20_SendDataToTcp) refers to malloc.o(i.free) for free
    onewire.o(i.OneWire_Init) refers to stm32f10x_rcc.o(i.RCC_APB2PeriphClockCmd) for RCC_APB2PeriphClockCmd
    onewire.o(i.OneWire_Init) refers to stm32f10x_gpio.o(i.GPIO_Init) for GPIO_Init
    onewire.o(i.OneWire_ReceiveBit) refers to onewire.o(i.OneWire_Set_Out) for OneWire_Set_Out
    onewire.o(i.OneWire_ReceiveBit) refers to delay.o(i.Delay_us) for Delay_us
    onewire.o(i.OneWire_ReceiveBit) refers to onewire.o(i.OneWire_Set_In) for OneWire_Set_In
    onewire.o(i.OneWire_ReceiveByte) refers to onewire.o(i.OneWire_ReceiveBit) for OneWire_ReceiveBit
    onewire.o(i.OneWire_SendBit) refers to onewire.o(i.OneWire_Set_Out) for OneWire_Set_Out
    onewire.o(i.OneWire_SendBit) refers to delay.o(i.Delay_us) for Delay_us
    onewire.o(i.OneWire_SendByte) refers to onewire.o(i.OneWire_SendBit) for OneWire_SendBit
    onewire.o(i.OneWire_Set_In) refers to stm32f10x_gpio.o(i.GPIO_Init) for GPIO_Init
    onewire.o(i.OneWire_Set_Out) refers to stm32f10x_gpio.o(i.GPIO_Init) for GPIO_Init
    my_i2c.o(i.My_I2C_Init) refers to stm32f10x_rcc.o(i.RCC_APB2PeriphClockCmd) for RCC_APB2PeriphClockCmd
    my_i2c.o(i.My_I2C_Init) refers to stm32f10x_rcc.o(i.RCC_APB1PeriphClockCmd) for RCC_APB1PeriphClockCmd
    my_i2c.o(i.My_I2C_Init) refers to stm32f10x_gpio.o(i.GPIO_Init) for GPIO_Init
    my_i2c.o(i.My_I2C_Init) refers to stm32f10x_i2c.o(i.I2C_Init) for I2C_Init
    my_i2c.o(i.My_I2C_Init) refers to stm32f10x_i2c.o(i.I2C_Cmd) for I2C_Cmd
    bh1750.o(i.BH1750_Init) refers to myi2c.o(i.MyI2C_Init) for MyI2C_Init
    bh1750.o(i.BH1750_Init) refers to bh1750.o(i.Single_Write_BH1750) for Single_Write_BH1750
    bh1750.o(i.BH1750_Init) refers to delay.o(i.Delay_ms) for Delay_ms
    bh1750.o(i.Multiple_read_BH1750) refers to myi2c.o(i.MyI2C_Start) for MyI2C_Start
    bh1750.o(i.Multiple_read_BH1750) refers to myi2c.o(i.MyI2C_SendByte) for MyI2C_SendByte
    bh1750.o(i.Multiple_read_BH1750) refers to myi2c.o(i.MyI2C_ReceiveByte) for MyI2C_ReceiveByte
    bh1750.o(i.Multiple_read_BH1750) refers to myi2c.o(i.MyI2C_SendAck) for MyI2C_SendAck
    bh1750.o(i.Multiple_read_BH1750) refers to myi2c.o(i.MyI2C_Stop) for MyI2C_Stop
    bh1750.o(i.Multiple_read_BH1750) refers to delay.o(i.Delay_ms) for Delay_ms
    bh1750.o(i.Multiple_read_BH1750) refers to bh1750.o(.data) for BH1750_ErrorCount
    bh1750.o(i.Single_Write_BH1750) refers to myi2c.o(i.MyI2C_Start) for MyI2C_Start
    bh1750.o(i.Single_Write_BH1750) refers to myi2c.o(i.MyI2C_SendByte) for MyI2C_SendByte
    bh1750.o(i.Single_Write_BH1750) refers to myi2c.o(i.MyI2C_Stop) for MyI2C_Stop
    soilhumsensor.o(i.SoilHumSensor_Init) refers to ad.o(i.SOIL_AD_Init) for SOIL_AD_Init
    soilhumsensor.o(i.SoilHumSensor_SendDataToTcp) refers to fmul.o(.text) for __aeabi_fmul
    soilhumsensor.o(i.SoilHumSensor_SendDataToTcp) refers to ffixui.o(.text) for __aeabi_f2uiz
    soilhumsensor.o(i.SoilHumSensor_SendDataToTcp) refers to dfltui.o(.text) for __aeabi_ui2d
    soilhumsensor.o(i.SoilHumSensor_SendDataToTcp) refers to ddiv.o(.text) for __aeabi_ddiv
    soilhumsensor.o(i.SoilHumSensor_SendDataToTcp) refers to d2f.o(.text) for __aeabi_d2f
    soilhumsensor.o(i.SoilHumSensor_SendDataToTcp) refers to f2d.o(.text) for __aeabi_f2d
    soilhumsensor.o(i.SoilHumSensor_SendDataToTcp) refers to pack_unpack.o(i.json_pack) for json_pack
    soilhumsensor.o(i.SoilHumSensor_SendDataToTcp) refers to dump.o(i.json_dumps) for json_dumps
    soilhumsensor.o(i.SoilHumSensor_SendDataToTcp) refers to serial.o(i.Serial_SendString) for Serial_SendString
    soilhumsensor.o(i.SoilHumSensor_SendDataToTcp) refers to value.o(i.json_delete) for json_delete
    soilhumsensor.o(i.SoilHumSensor_SendDataToTcp) refers to malloc.o(i.free) for free
    soilhumsensor.o(i.SoilHumSensor_SendDataToTcp) refers to soilhumsensor.o(.data) for soil_moisture
    soilhumsensor.o(i.SoilHumValue_Get) refers to ad.o(i.SOIL_AD_GetValue) for SOIL_AD_GetValue
    soilhumsensor.o(i.SoilHumValue_Get) refers to fflti.o(.text) for __aeabi_i2f
    soilhumsensor.o(i.SoilHumValue_Get) refers to fdiv.o(.text) for __aeabi_fdiv
    soilhumsensor.o(i.SoilHumValue_Get) refers to fmul.o(.text) for __aeabi_fmul
    soilhumsensor.o(i.SoilHumValue_Get) refers to cfrcmple.o(.text) for __aeabi_cfrcmple
    soilhumsensor.o(i.SoilHumValue_Get) refers to soilhumsensor.o(.data) for soil_moisture
    pump.o(i.Pump_Control) refers to stm32f10x_gpio.o(i.GPIO_SetBits) for GPIO_SetBits
    pump.o(i.Pump_Control) refers to stm32f10x_gpio.o(i.GPIO_ResetBits) for GPIO_ResetBits
    pump.o(i.Pump_Control) refers to pump.o(.data) for pump_status
    pump.o(i.Pump_Init) refers to stm32f10x_rcc.o(i.RCC_APB2PeriphClockCmd) for RCC_APB2PeriphClockCmd
    pump.o(i.Pump_Init) refers to stm32f10x_gpio.o(i.GPIO_Init) for GPIO_Init
    pump.o(i.Pump_Init) refers to stm32f10x_gpio.o(i.GPIO_ResetBits) for GPIO_ResetBits
    valve1.o(i.Valve1_Control) refers to stm32f10x_gpio.o(i.GPIO_SetBits) for GPIO_SetBits
    valve1.o(i.Valve1_Control) refers to stm32f10x_gpio.o(i.GPIO_ResetBits) for GPIO_ResetBits
    valve1.o(i.Valve1_Control) refers to valve1.o(.data) for valve1_status
    valve1.o(i.Valve1_Init) refers to stm32f10x_rcc.o(i.RCC_APB2PeriphClockCmd) for RCC_APB2PeriphClockCmd
    valve1.o(i.Valve1_Init) refers to stm32f10x_gpio.o(i.GPIO_Init) for GPIO_Init
    valve1.o(i.Valve1_Init) refers to stm32f10x_gpio.o(i.GPIO_ResetBits) for GPIO_ResetBits
    heatingcore.o(i.HeatingCore_Control) refers to stm32f10x_gpio.o(i.GPIO_SetBits) for GPIO_SetBits
    heatingcore.o(i.HeatingCore_Control) refers to stm32f10x_gpio.o(i.GPIO_ResetBits) for GPIO_ResetBits
    heatingcore.o(i.HeatingCore_Control) refers to heatingcore.o(.data) for hc_status
    heatingcore.o(i.HeatingCore_Init) refers to stm32f10x_rcc.o(i.RCC_APB2PeriphClockCmd) for RCC_APB2PeriphClockCmd
    heatingcore.o(i.HeatingCore_Init) refers to stm32f10x_gpio.o(i.GPIO_Init) for GPIO_Init
    heatingcore.o(i.HeatingCore_Init) refers to stm32f10x_gpio.o(i.GPIO_ResetBits) for GPIO_ResetBits
    valve2.o(i.Valve2_Control) refers to stm32f10x_gpio.o(i.GPIO_SetBits) for GPIO_SetBits
    valve2.o(i.Valve2_Control) refers to stm32f10x_gpio.o(i.GPIO_ResetBits) for GPIO_ResetBits
    valve2.o(i.Valve2_Control) refers to valve2.o(.data) for valve2_status
    valve2.o(i.Valve2_Init) refers to stm32f10x_rcc.o(i.RCC_APB2PeriphClockCmd) for RCC_APB2PeriphClockCmd
    valve2.o(i.Valve2_Init) refers to stm32f10x_gpio.o(i.GPIO_Init) for GPIO_Init
    valve2.o(i.Valve2_Init) refers to stm32f10x_gpio.o(i.GPIO_ResetBits) for GPIO_ResetBits
    _28byj48.o(i.SteeperMotor_Control) refers to _28byj48.o(i._28BYJ48_Forward_Ration) for _28BYJ48_Forward_Ration
    _28byj48.o(i.SteeperMotor_Control) refers to _28byj48.o(i._28BYJ48_Reverse_Rotation) for _28BYJ48_Reverse_Rotation
    _28byj48.o(i.SteeperMotor_Control) refers to _28byj48.o(.data) for curtain_status
    _28byj48.o(i.TIM1_UP_IRQHandler) refers to stm32f10x_tim.o(i.TIM_GetITStatus) for TIM_GetITStatus
    _28byj48.o(i.TIM1_UP_IRQHandler) refers to stm32f10x_tim.o(i.TIM_SetAutoreload) for TIM_SetAutoreload
    _28byj48.o(i.TIM1_UP_IRQHandler) refers to _28byj48.o(i._28BYJ48Stop) for _28BYJ48Stop
    _28byj48.o(i.TIM1_UP_IRQHandler) refers to stm32f10x_gpio.o(i.GPIO_Write) for GPIO_Write
    _28byj48.o(i.TIM1_UP_IRQHandler) refers to stm32f10x_tim.o(i.TIM_ClearITPendingBit) for TIM_ClearITPendingBit
    _28byj48.o(i.TIM1_UP_IRQHandler) refers to _28byj48.o(.data) for Count
    _28byj48.o(i.TIM1_UP_IRQHandler) refers to _28byj48.o(.constdata) for CW
    _28byj48.o(i._28BYJ48Stop) refers to stm32f10x_tim.o(i.TIM_Cmd) for TIM_Cmd
    _28byj48.o(i._28BYJ48Stop) refers to stm32f10x_gpio.o(i.GPIO_Write) for GPIO_Write
    _28byj48.o(i._28BYJ48Stop) refers to _28byj48.o(.data) for Mode
    _28byj48.o(i._28BYJ48_Forward_Ration) refers to stm32f10x_tim.o(i.TIM_Cmd) for TIM_Cmd
    _28byj48.o(i._28BYJ48_Forward_Ration) refers to _28byj48.o(.data) for Count
    _28byj48.o(i._28BYJ48_Init) refers to stm32f10x_rcc.o(i.RCC_APB2PeriphClockCmd) for RCC_APB2PeriphClockCmd
    _28byj48.o(i._28BYJ48_Init) refers to stm32f10x_gpio.o(i.GPIO_Init) for GPIO_Init
    _28byj48.o(i._28BYJ48_Init) refers to stm32f10x_tim.o(i.TIM_TimeBaseInit) for TIM_TimeBaseInit
    _28byj48.o(i._28BYJ48_Init) refers to stm32f10x_tim.o(i.TIM_ITConfig) for TIM_ITConfig
    _28byj48.o(i._28BYJ48_Init) refers to misc.o(i.NVIC_Init) for NVIC_Init
    _28byj48.o(i._28BYJ48_Reverse_Rotation) refers to stm32f10x_tim.o(i.TIM_Cmd) for TIM_Cmd
    _28byj48.o(i._28BYJ48_Reverse_Rotation) refers to _28byj48.o(.data) for Count
    myi2c.o(i.MyI2C_Init) refers to stm32f10x_rcc.o(i.RCC_APB2PeriphClockCmd) for RCC_APB2PeriphClockCmd
    myi2c.o(i.MyI2C_Init) refers to stm32f10x_gpio.o(i.GPIO_Init) for GPIO_Init
    myi2c.o(i.MyI2C_Init) refers to stm32f10x_gpio.o(i.GPIO_SetBits) for GPIO_SetBits
    myi2c.o(i.MyI2C_R_SDA) refers to stm32f10x_gpio.o(i.GPIO_ReadInputDataBit) for GPIO_ReadInputDataBit
    myi2c.o(i.MyI2C_R_SDA) refers to delay.o(i.Delay_us) for Delay_us
    myi2c.o(i.MyI2C_ReceiveAck) refers to myi2c.o(i.MyI2C_W_SDA) for MyI2C_W_SDA
    myi2c.o(i.MyI2C_ReceiveAck) refers to myi2c.o(i.MyI2C_W_SCL) for MyI2C_W_SCL
    myi2c.o(i.MyI2C_ReceiveAck) refers to myi2c.o(i.MyI2C_R_SDA) for MyI2C_R_SDA
    myi2c.o(i.MyI2C_ReceiveByte) refers to myi2c.o(i.MyI2C_W_SDA) for MyI2C_W_SDA
    myi2c.o(i.MyI2C_ReceiveByte) refers to myi2c.o(i.MyI2C_W_SCL) for MyI2C_W_SCL
    myi2c.o(i.MyI2C_ReceiveByte) refers to myi2c.o(i.MyI2C_R_SDA) for MyI2C_R_SDA
    myi2c.o(i.MyI2C_SendAck) refers to myi2c.o(i.MyI2C_W_SDA) for MyI2C_W_SDA
    myi2c.o(i.MyI2C_SendAck) refers to myi2c.o(i.MyI2C_W_SCL) for MyI2C_W_SCL
    myi2c.o(i.MyI2C_SendByte) refers to myi2c.o(i.MyI2C_W_SDA) for MyI2C_W_SDA
    myi2c.o(i.MyI2C_SendByte) refers to myi2c.o(i.MyI2C_W_SCL) for MyI2C_W_SCL
    myi2c.o(i.MyI2C_SendByte) refers to myi2c.o(i.MyI2C_ReceiveAck) for MyI2C_ReceiveAck
    myi2c.o(i.MyI2C_Start) refers to myi2c.o(i.MyI2C_W_SDA) for MyI2C_W_SDA
    myi2c.o(i.MyI2C_Start) refers to myi2c.o(i.MyI2C_W_SCL) for MyI2C_W_SCL
    myi2c.o(i.MyI2C_Stop) refers to myi2c.o(i.MyI2C_W_SDA) for MyI2C_W_SDA
    myi2c.o(i.MyI2C_Stop) refers to myi2c.o(i.MyI2C_W_SCL) for MyI2C_W_SCL
    myi2c.o(i.MyI2C_W_SCL) refers to stm32f10x_gpio.o(i.GPIO_WriteBit) for GPIO_WriteBit
    myi2c.o(i.MyI2C_W_SCL) refers to delay.o(i.Delay_us) for Delay_us
    myi2c.o(i.MyI2C_W_SDA) refers to stm32f10x_gpio.o(i.GPIO_WriteBit) for GPIO_WriteBit
    myi2c.o(i.MyI2C_W_SDA) refers to delay.o(i.Delay_us) for Delay_us
    main.o(i.main) refers to oled.o(i.OLED_Init) for OLED_Init
    main.o(i.main) refers to oled.o(i.OLED_ShowString) for OLED_ShowString
    main.o(i.main) refers to myrtc.o(i.MyRTC_Init) for MyRTC_Init
    main.o(i.main) refers to myrtc.o(i.MyRTC_SetTime) for MyRTC_SetTime
    main.o(i.main) refers to myrtc.o(i.MyRTC_ReadTime) for MyRTC_ReadTime
    main.o(i.main) refers to oled.o(i.OLED_ShowNum) for OLED_ShowNum
    main.o(i.main) refers to interactwithtcp.o(i.ControlDevice) for ControlDevice
    main.o(i.main) refers to delay.o(i.Delay_ms) for Delay_ms
    main.o(i.main) refers to myrtc.o(.data) for MyRTC_Time
    interactwithtcp.o(i.ControlDevice) refers to memseta.o(.text) for __aeabi_memclr4
    interactwithtcp.o(i.ControlDevice) refers to serial.o(i.Serial_GetRxFlag) for Serial_GetRxFlag
    interactwithtcp.o(i.ControlDevice) refers to oled.o(i.OLED_Clear) for OLED_Clear
    interactwithtcp.o(i.ControlDevice) refers to oled.o(i.OLED_ShowString) for OLED_ShowString
    interactwithtcp.o(i.ControlDevice) refers to delay.o(i.Delay_ms) for Delay_ms
    interactwithtcp.o(i.ControlDevice) refers to strcpy.o(.text) for strcpy
    interactwithtcp.o(i.ControlDevice) refers to strstr.o(.text) for strstr
    interactwithtcp.o(i.ControlDevice) refers to load.o(i.json_loads) for json_loads
    interactwithtcp.o(i.ControlDevice) refers to value.o(i.json_object_iter) for json_object_iter
    interactwithtcp.o(i.ControlDevice) refers to value.o(i.json_object_iter_key) for json_object_iter_key
    interactwithtcp.o(i.ControlDevice) refers to value.o(i.json_object_iter_value) for json_object_iter_value
    interactwithtcp.o(i.ControlDevice) refers to strcmp.o(.text) for strcmp
    interactwithtcp.o(i.ControlDevice) refers to value.o(i.json_real_value) for json_real_value
    interactwithtcp.o(i.ControlDevice) refers to d2f.o(.text) for __aeabi_d2f
    interactwithtcp.o(i.ControlDevice) refers to value.o(i.json_integer_value) for json_integer_value
    interactwithtcp.o(i.ControlDevice) refers to dfixui.o(.text) for __aeabi_d2uiz
    interactwithtcp.o(i.ControlDevice) refers to value.o(i.json_object_iter_next) for json_object_iter_next
    interactwithtcp.o(i.ControlDevice) refers to interactwithtcp.o(i.json_decref) for json_decref
    interactwithtcp.o(i.ControlDevice) refers to value.o(i.json_object_get) for json_object_get
    interactwithtcp.o(i.ControlDevice) refers to value.o(i.json_string_value) for json_string_value
    interactwithtcp.o(i.ControlDevice) refers to led.o(i.LED_Control) for LED_Control
    interactwithtcp.o(i.ControlDevice) refers to motor.o(i.Motor_Control) for Motor_Control
    interactwithtcp.o(i.ControlDevice) refers to serial.o(.bss) for Serial_RxFromEspBuf
    interactwithtcp.o(i.ControlDevice) refers to interactwithtcp.o(.data) for airT_Max
    interactwithtcp.o(i.ControlDevice) refers to pump.o(i.Pump_Control) for Pump_Control
    interactwithtcp.o(i.ControlDevice) refers to valve1.o(i.Valve1_Control) for Valve1_Control
    interactwithtcp.o(i.ControlDevice) refers to valve2.o(i.Valve2_Control) for Valve2_Control
    interactwithtcp.o(i.ControlDevice) refers to heatingcore.o(i.HeatingCore_Control) for HeatingCore_Control
    interactwithtcp.o(i.ControlDevice) refers to _28byj48.o(i.SteeperMotor_Control) for SteeperMotor_Control
    interactwithtcp.o(i.ControlDevice) refers to serial.o(i.Serial_OledShowString) for Serial_OledShowString
    interactwithtcp.o(i.ControlDevice) refers to delay.o(i.Delay_s) for Delay_s
    interactwithtcp.o(i.ControlDevice) refers to serial.o(i.Serial_RxFromEspBuf_Clear) for Serial_RxFromEspBuf_Clear
    interactwithtcp.o(i.ControlDevice) refers to myrtc.o(i.MyRTC_ReadTime) for MyRTC_ReadTime
    interactwithtcp.o(i.ControlDevice) refers to cfcmple.o(.text) for __aeabi_cfcmple
    interactwithtcp.o(i.ControlDevice) refers to cfrcmple.o(.text) for __aeabi_cfrcmple
    interactwithtcp.o(i.ControlDevice) refers to bh1750.o(.data) for light
    interactwithtcp.o(i.ControlDevice) refers to myrtc.o(.data) for MyRTC_Time
    interactwithtcp.o(i.ControlDevice) refers to sgp30.o(.data) for CO2Data
    interactwithtcp.o(i.ControlDevice) refers to phsensor.o(.data) for ph_value
    interactwithtcp.o(i.ControlDevice) refers to soilhumsensor.o(.data) for soil_moisture
    interactwithtcp.o(i.ControlDevice) refers to ds18b20.o(.data) for soil_temperature
    interactwithtcp.o(i.Module_Init) refers to oled.o(i.OLED_Init) for OLED_Init
    interactwithtcp.o(i.Module_Init) refers to esp8266.o(i.Esp8266_Init) for Esp8266_Init
    interactwithtcp.o(i.Module_Init) refers to esp8266.o(i.Esp8266_Mqtt_Connect) for Esp8266_Mqtt_Connect
    interactwithtcp.o(i.Module_Init) refers to bh1750.o(i.BH1750_Init) for BH1750_Init
    interactwithtcp.o(i.Module_Init) refers to pump.o(i.Pump_Init) for Pump_Init
    interactwithtcp.o(i.Module_Init) refers to valve1.o(i.Valve1_Init) for Valve1_Init
    interactwithtcp.o(i.Module_Init) refers to valve2.o(i.Valve2_Init) for Valve2_Init
    interactwithtcp.o(i.Module_Init) refers to heatingcore.o(i.HeatingCore_Init) for HeatingCore_Init
    interactwithtcp.o(i.Module_Init) refers to soilhumsensor.o(i.SoilHumSensor_Init) for SoilHumSensor_Init
    interactwithtcp.o(i.Module_Init) refers to ds18b20.o(i.DS18B20_Init) for DS18B20_Init
    interactwithtcp.o(i.Module_Init) refers to phsensor.o(i.PhSensor_Init) for PhSensor_Init
    interactwithtcp.o(i.Module_Init) refers to sgp30.o(i.SGP30_Init) for SGP30_Init
    interactwithtcp.o(i.Module_Init) refers to motor.o(i.Motor_Init) for Motor_Init
    interactwithtcp.o(i.Module_Init) refers to dth11.o(i.Dth11_Init) for Dth11_Init
    interactwithtcp.o(i.Module_Init) refers to led.o(i.LED_Init) for LED_Init
    interactwithtcp.o(i.Module_Init) refers to _28byj48.o(i._28BYJ48_Init) for _28BYJ48_Init
    interactwithtcp.o(i.SendPropertyToMqtt) refers to f2d.o(.text) for __aeabi_f2d
    interactwithtcp.o(i.SendPropertyToMqtt) refers to printfa.o(i.__0sprintf) for __2sprintf
    interactwithtcp.o(i.SendPropertyToMqtt) refers to strlen.o(.text) for strlen
    interactwithtcp.o(i.SendPropertyToMqtt) refers to oled.o(i.OLED_ShowString) for OLED_ShowString
    interactwithtcp.o(i.SendPropertyToMqtt) refers to delay.o(i.Delay_s) for Delay_s
    interactwithtcp.o(i.SendPropertyToMqtt) refers to serial.o(i.Serial_SendString) for Serial_SendString
    interactwithtcp.o(i.SendPropertyToMqtt) refers to serial.o(i.Serial_RxFromEspBuf_Clear) for Serial_RxFromEspBuf_Clear
    interactwithtcp.o(i.SendPropertyToMqtt) refers to interactwithtcp.o(.conststring) for .conststring
    interactwithtcp.o(i.SendPropertyToMqtt) refers to phsensor.o(.data) for ph_value
    interactwithtcp.o(i.SendPropertyToMqtt) refers to ds18b20.o(.data) for soil_temperature
    interactwithtcp.o(i.SendPropertyToMqtt) refers to soilhumsensor.o(.data) for soil_moisture
    interactwithtcp.o(i.SendPropertyToMqtt) refers to dth11.o(.data) for air_humidity
    interactwithtcp.o(i.SendPropertyToMqtt) refers to bh1750.o(.data) for BH1750_WorkStatus
    interactwithtcp.o(i.SendPropertyToMqtt) refers to sgp30.o(.data) for SGP30_WorkStatus
    interactwithtcp.o(i.json_decref) refers to value.o(i.json_delete) for json_delete
    dump.o(i.do_dump) refers to dump.o(i.__ARM_common_switch8) for __ARM_common_switch8
    dump.o(i.do_dump) refers to value.o(i.json_integer_value) for json_integer_value
    dump.o(i.do_dump) refers to printfa.o(i.__0snprintf) for __2snprintf
    dump.o(i.do_dump) refers to value.o(i.json_real_value) for json_real_value
    dump.o(i.do_dump) refers to strconv.o(i.jsonp_dtostr) for jsonp_dtostr
    dump.o(i.do_dump) refers to value.o(i.json_string_length) for json_string_length
    dump.o(i.do_dump) refers to value.o(i.json_string_value) for json_string_value
    dump.o(i.do_dump) refers to dump.o(i.dump_string) for dump_string
    dump.o(i.do_dump) refers to value.o(i.json_array_size) for json_array_size
    dump.o(i.do_dump) refers to dump.o(i.dump_indent) for dump_indent
    dump.o(i.do_dump) refers to value.o(i.json_array_get) for json_array_get
    dump.o(i.do_dump) refers to value.o(i.json_object_iter) for json_object_iter
    dump.o(i.do_dump) refers to value.o(i.json_object_size) for json_object_size
    dump.o(i.do_dump) refers to memory.o(i.jsonp_malloc) for jsonp_malloc
    dump.o(i.do_dump) refers to hashtable.o(i.hashtable_iter_serial) for hashtable_iter_serial
    dump.o(i.do_dump) refers to value.o(i.json_object_iter_key) for json_object_iter_key
    dump.o(i.do_dump) refers to value.o(i.json_object_iter_next) for json_object_iter_next
    dump.o(i.do_dump) refers to qsort.o(.text) for qsort
    dump.o(i.do_dump) refers to value.o(i.json_object_get) for json_object_get
    dump.o(i.do_dump) refers to strlen.o(.text) for strlen
    dump.o(i.do_dump) refers to memory.o(i.jsonp_free) for jsonp_free
    dump.o(i.do_dump) refers to value.o(i.json_object_iter_value) for json_object_iter_value
    dump.o(i.do_dump) refers to dump.o(i.object_key_compare_keys) for object_key_compare_keys
    dump.o(i.do_dump) refers to dump.o(i.object_key_compare_serials) for object_key_compare_serials
    dump.o(i.dump_indent) refers to dump.o(.constdata) for .constdata
    dump.o(i.dump_string) refers to utf.o(i.utf8_iterate) for utf8_iterate
    dump.o(i.dump_string) refers to printfa.o(i.__0sprintf) for __2sprintf
    dump.o(i.dump_to_file) refers to fwrite.o(i.fwrite) for fwrite
    dump.o(i.dump_to_strbuffer) refers to strbuffer.o(i.strbuffer_append_bytes) for strbuffer_append_bytes
    dump.o(i.json_dump_callback) refers to dump.o(i.do_dump) for do_dump
    dump.o(i.json_dump_file) refers to dump.o(i.json_dumpf) for json_dumpf
    dump.o(i.json_dumpf) refers to dump.o(i.json_dump_callback) for json_dump_callback
    dump.o(i.json_dumpf) refers to dump.o(i.dump_to_file) for dump_to_file
    dump.o(i.json_dumps) refers to strbuffer.o(i.strbuffer_init) for strbuffer_init
    dump.o(i.json_dumps) refers to dump.o(i.json_dump_callback) for json_dump_callback
    dump.o(i.json_dumps) refers to strbuffer.o(i.strbuffer_value) for strbuffer_value
    dump.o(i.json_dumps) refers to memory.o(i.jsonp_strdup) for jsonp_strdup
    dump.o(i.json_dumps) refers to strbuffer.o(i.strbuffer_close) for strbuffer_close
    dump.o(i.json_dumps) refers to dump.o(i.dump_to_strbuffer) for dump_to_strbuffer
    dump.o(i.object_key_compare_keys) refers to strcmp.o(.text) for strcmp
    load.o(i.error_set) refers to printfa.o(i.__0vsnprintf) for __c89vsnprintf
    load.o(i.error_set) refers to strbuffer.o(i.strbuffer_value) for strbuffer_value
    load.o(i.error_set) refers to printfa.o(i.__0snprintf) for __2snprintf
    load.o(i.error_set) refers to error.o(i.jsonp_error_set) for jsonp_error_set
    load.o(i.json_decref) refers to value.o(i.json_delete) for json_delete
    load.o(i.json_load_callback) refers to memseta.o(.text) for __aeabi_memclr4
    load.o(i.json_load_callback) refers to error.o(i.jsonp_error_init) for jsonp_error_init
    load.o(i.json_load_callback) refers to load.o(i.lex_init) for lex_init
    load.o(i.json_load_callback) refers to load.o(i.error_set) for error_set
    load.o(i.json_load_callback) refers to load.o(i.parse_json) for parse_json
    load.o(i.json_load_callback) refers to load.o(i.lex_close) for lex_close
    load.o(i.json_load_callback) refers to load.o(i.callback_get) for callback_get
    load.o(i.json_load_file) refers to error.o(i.jsonp_error_init) for jsonp_error_init
    load.o(i.json_load_file) refers to load.o(i.json_loadf) for json_loadf
    load.o(i.json_load_file) refers to load.o(i.error_set) for error_set
    load.o(i.json_load_file) refers to errno.o(i.__aeabi_errno_addr) for __aeabi_errno_addr
    load.o(i.json_load_file) refers to strerror.o(.text) for strerror
    load.o(i.json_loadb) refers to error.o(i.jsonp_error_init) for jsonp_error_init
    load.o(i.json_loadb) refers to load.o(i.lex_init) for lex_init
    load.o(i.json_loadb) refers to load.o(i.error_set) for error_set
    load.o(i.json_loadb) refers to load.o(i.parse_json) for parse_json
    load.o(i.json_loadb) refers to load.o(i.lex_close) for lex_close
    load.o(i.json_loadb) refers to load.o(i.buffer_get) for buffer_get
    load.o(i.json_loadf) refers to error.o(i.jsonp_error_init) for jsonp_error_init
    load.o(i.json_loadf) refers to load.o(i.lex_init) for lex_init
    load.o(i.json_loadf) refers to load.o(i.error_set) for error_set
    load.o(i.json_loadf) refers to load.o(i.parse_json) for parse_json
    load.o(i.json_loadf) refers to load.o(i.lex_close) for lex_close
    load.o(i.json_loadf) refers to stdin.o(.data) for __stdin
    load.o(i.json_loadf) refers to fgetc.o(.text) for fgetc
    load.o(i.json_loads) refers to error.o(i.jsonp_error_init) for jsonp_error_init
    load.o(i.json_loads) refers to load.o(i.lex_init) for lex_init
    load.o(i.json_loads) refers to load.o(i.error_set) for error_set
    load.o(i.json_loads) refers to load.o(i.parse_json) for parse_json
    load.o(i.json_loads) refers to load.o(i.lex_close) for lex_close
    load.o(i.json_loads) refers to load.o(i.string_get) for string_get
    load.o(i.lex_close) refers to load.o(i.lex_free_string) for lex_free_string
    load.o(i.lex_close) refers to strbuffer.o(i.strbuffer_close) for strbuffer_close
    load.o(i.lex_free_string) refers to memory.o(i.jsonp_free) for jsonp_free
    load.o(i.lex_get) refers to load.o(i.stream_get) for stream_get
    load.o(i.lex_get_save) refers to load.o(i.stream_get) for stream_get
    load.o(i.lex_get_save) refers to load.o(i.lex_save) for lex_save
    load.o(i.lex_init) refers to strbuffer.o(i.strbuffer_init) for strbuffer_init
    load.o(i.lex_save) refers to strbuffer.o(i.strbuffer_append_byte) for strbuffer_append_byte
    load.o(i.lex_scan) refers to strbuffer.o(i.strbuffer_clear) for strbuffer_clear
    load.o(i.lex_scan) refers to load.o(i.lex_free_string) for lex_free_string
    load.o(i.lex_scan) refers to load.o(i.lex_get) for lex_get
    load.o(i.lex_scan) refers to load.o(i.lex_save) for lex_save
    load.o(i.lex_scan) refers to load.o(i.lex_get_save) for lex_get_save
    load.o(i.lex_scan) refers to load.o(i.lex_unget_unsave) for lex_unget_unsave
    load.o(i.lex_scan) refers to strbuffer.o(i.strbuffer_value) for strbuffer_value
    load.o(i.lex_scan) refers to strcmp.o(.text) for strcmp
    load.o(i.lex_scan) refers to load.o(i.lex_scan_string) for lex_scan_string
    load.o(i.lex_scan) refers to load.o(i.lex_scan_number) for lex_scan_number
    load.o(i.lex_scan_number) refers to load.o(i.lex_get_save) for lex_get_save
    load.o(i.lex_scan_number) refers to load.o(i.lex_unget_unsave) for lex_unget_unsave
    load.o(i.lex_scan_number) refers to strbuffer.o(i.strbuffer_value) for strbuffer_value
    load.o(i.lex_scan_number) refers to errno.o(i.__aeabi_errno_addr) for __aeabi_errno_addr
    load.o(i.lex_scan_number) refers to strtoll.o(.text) for strtoll
    load.o(i.lex_scan_number) refers to load.o(i.error_set) for error_set
    load.o(i.lex_scan_number) refers to load.o(i.lex_get) for lex_get
    load.o(i.lex_scan_number) refers to load.o(i.stream_unget) for stream_unget
    load.o(i.lex_scan_number) refers to load.o(i.lex_save) for lex_save
    load.o(i.lex_scan_number) refers to strconv.o(i.jsonp_strtod) for jsonp_strtod
    load.o(i.lex_scan_string) refers to load.o(i.lex_unget_unsave) for lex_unget_unsave
    load.o(i.lex_scan_string) refers to load.o(i.error_set) for error_set
    load.o(i.lex_scan_string) refers to load.o(i.lex_get_save) for lex_get_save
    load.o(i.lex_scan_string) refers to memory.o(i.jsonp_malloc) for jsonp_malloc
    load.o(i.lex_scan_string) refers to strbuffer.o(i.strbuffer_value) for strbuffer_value
    load.o(i.lex_scan_string) refers to load.o(i.decode_unicode_escape) for decode_unicode_escape
    load.o(i.lex_scan_string) refers to load.o(i.lex_free_string) for lex_free_string
    load.o(i.lex_scan_string) refers to utf.o(i.utf8_encode) for utf8_encode
    load.o(i.lex_unget_unsave) refers to load.o(i.stream_unget) for stream_unget
    load.o(i.lex_unget_unsave) refers to strbuffer.o(i.strbuffer_pop) for strbuffer_pop
    load.o(i.parse_array) refers to value.o(i.json_array) for json_array
    load.o(i.parse_array) refers to load.o(i.lex_scan) for lex_scan
    load.o(i.parse_array) refers to load.o(i.parse_value) for parse_value
    load.o(i.parse_array) refers to load.o(i.json_incref) for json_incref
    load.o(i.parse_array) refers to value.o(i.json_array_append_new) for json_array_append_new
    load.o(i.parse_array) refers to load.o(i.json_decref) for json_decref
    load.o(i.parse_array) refers to load.o(i.error_set) for error_set
    load.o(i.parse_json) refers to load.o(i.lex_scan) for lex_scan
    load.o(i.parse_json) refers to load.o(i.error_set) for error_set
    load.o(i.parse_json) refers to load.o(i.parse_value) for parse_value
    load.o(i.parse_json) refers to load.o(i.json_decref) for json_decref
    load.o(i.parse_object) refers to value.o(i.json_object) for json_object
    load.o(i.parse_object) refers to load.o(i.lex_scan) for lex_scan
    load.o(i.parse_object) refers to memchr.o(.text) for memchr
    load.o(i.parse_object) refers to memory.o(i.jsonp_free) for jsonp_free
    load.o(i.parse_object) refers to value.o(i.json_object_get) for json_object_get
    load.o(i.parse_object) refers to load.o(i.parse_value) for parse_value
    load.o(i.parse_object) refers to load.o(i.json_incref) for json_incref
    load.o(i.parse_object) refers to value.o(i.json_object_set_new_nocheck) for json_object_set_new_nocheck
    load.o(i.parse_object) refers to load.o(i.json_decref) for json_decref
    load.o(i.parse_object) refers to load.o(i.error_set) for error_set
    load.o(i.parse_value) refers to memchr.o(.text) for memchr
    load.o(i.parse_value) refers to value.o(i.jsonp_stringn_nocheck_own) for jsonp_stringn_nocheck_own
    load.o(i.parse_value) refers to strconv.o(i.jsonp_strtod) for jsonp_strtod
    load.o(i.parse_value) refers to load.o(i.error_set) for error_set
    load.o(i.parse_value) refers to value.o(i.json_real) for json_real
    load.o(i.parse_value) refers to value.o(i.json_integer) for json_integer
    load.o(i.parse_value) refers to value.o(i.json_true) for json_true
    load.o(i.parse_value) refers to value.o(i.json_false) for json_false
    load.o(i.parse_value) refers to value.o(i.json_null) for json_null
    load.o(i.parse_value) refers to load.o(i.parse_object) for parse_object
    load.o(i.parse_value) refers to load.o(i.parse_array) for parse_array
    load.o(i.stream_get) refers to utf.o(i.utf8_check_first) for utf8_check_first
    load.o(i.stream_get) refers to utf.o(i.utf8_check_full) for utf8_check_full
    load.o(i.stream_get) refers to load.o(i.error_set) for error_set
    load.o(i.stream_unget) refers to utf.o(i.utf8_check_first) for utf8_check_first
    pack_unpack.o(i.json_decref) refers to value.o(i.json_delete) for json_delete
    pack_unpack.o(i.json_pack) refers to pack_unpack.o(i.json_vpack_ex) for json_vpack_ex
    pack_unpack.o(i.json_pack_ex) refers to pack_unpack.o(i.json_vpack_ex) for json_vpack_ex
    pack_unpack.o(i.json_unpack) refers to pack_unpack.o(i.json_vunpack_ex) for json_vunpack_ex
    pack_unpack.o(i.json_unpack_ex) refers to pack_unpack.o(i.json_vunpack_ex) for json_vunpack_ex
    pack_unpack.o(i.json_vpack_ex) refers to error.o(i.jsonp_error_init) for jsonp_error_init
    pack_unpack.o(i.json_vpack_ex) refers to pack_unpack.o(i.scanner_init) for scanner_init
    pack_unpack.o(i.json_vpack_ex) refers to pack_unpack.o(i.next_token) for next_token
    pack_unpack.o(i.json_vpack_ex) refers to pack_unpack.o(i.pack) for pack
    pack_unpack.o(i.json_vpack_ex) refers to pack_unpack.o(i.json_decref) for json_decref
    pack_unpack.o(i.json_vpack_ex) refers to pack_unpack.o(i.set_error) for set_error
    pack_unpack.o(i.json_vpack_ex) refers to error.o(i.jsonp_error_set) for jsonp_error_set
    pack_unpack.o(i.json_vunpack_ex) refers to error.o(i.jsonp_error_init) for jsonp_error_init
    pack_unpack.o(i.json_vunpack_ex) refers to pack_unpack.o(i.scanner_init) for scanner_init
    pack_unpack.o(i.json_vunpack_ex) refers to pack_unpack.o(i.next_token) for next_token
    pack_unpack.o(i.json_vunpack_ex) refers to pack_unpack.o(i.unpack) for unpack
    pack_unpack.o(i.json_vunpack_ex) refers to error.o(i.jsonp_error_set) for jsonp_error_set
    pack_unpack.o(i.json_vunpack_ex) refers to pack_unpack.o(i.set_error) for set_error
    pack_unpack.o(i.pack) refers to pack_unpack.o(i.set_error) for set_error
    pack_unpack.o(i.pack) refers to pack_unpack.o(i.pack_object) for pack_object
    pack_unpack.o(i.pack) refers to pack_unpack.o(i.pack_array) for pack_array
    pack_unpack.o(i.pack) refers to pack_unpack.o(i.read_string) for read_string
    pack_unpack.o(i.pack) refers to value.o(i.jsonp_stringn_nocheck_own) for jsonp_stringn_nocheck_own
    pack_unpack.o(i.pack) refers to value.o(i.json_stringn_nocheck) for json_stringn_nocheck
    pack_unpack.o(i.pack) refers to value.o(i.json_null) for json_null
    pack_unpack.o(i.pack) refers to value.o(i.json_true) for json_true
    pack_unpack.o(i.pack) refers to value.o(i.json_false) for json_false
    pack_unpack.o(i.pack) refers to value.o(i.json_integer) for json_integer
    pack_unpack.o(i.pack) refers to value.o(i.json_real) for json_real
    pack_unpack.o(i.pack) refers to pack_unpack.o(i.json_incref) for json_incref
    pack_unpack.o(i.pack_array) refers to value.o(i.json_array) for json_array
    pack_unpack.o(i.pack_array) refers to pack_unpack.o(i.next_token) for next_token
    pack_unpack.o(i.pack_array) refers to pack_unpack.o(i.pack) for pack
    pack_unpack.o(i.pack_array) refers to value.o(i.json_array_append_new) for json_array_append_new
    pack_unpack.o(i.pack_array) refers to pack_unpack.o(i.set_error) for set_error
    pack_unpack.o(i.pack_array) refers to pack_unpack.o(i.json_decref) for json_decref
    pack_unpack.o(i.pack_object) refers to value.o(i.json_object) for json_object
    pack_unpack.o(i.pack_object) refers to pack_unpack.o(i.next_token) for next_token
    pack_unpack.o(i.pack_object) refers to pack_unpack.o(i.set_error) for set_error
    pack_unpack.o(i.pack_object) refers to pack_unpack.o(i.read_string) for read_string
    pack_unpack.o(i.pack_object) refers to pack_unpack.o(i.pack) for pack
    pack_unpack.o(i.pack_object) refers to value.o(i.json_object_set_new_nocheck) for json_object_set_new_nocheck
    pack_unpack.o(i.pack_object) refers to memory.o(i.jsonp_free) for jsonp_free
    pack_unpack.o(i.pack_object) refers to pack_unpack.o(i.json_decref) for json_decref
    pack_unpack.o(i.read_string) refers to pack_unpack.o(i.next_token) for next_token
    pack_unpack.o(i.read_string) refers to pack_unpack.o(i.prev_token) for prev_token
    pack_unpack.o(i.read_string) refers to strlen.o(.text) for strlen
    pack_unpack.o(i.read_string) refers to utf.o(i.utf8_check_string) for utf8_check_string
    pack_unpack.o(i.read_string) refers to pack_unpack.o(i.set_error) for set_error
    pack_unpack.o(i.read_string) refers to strbuffer.o(i.strbuffer_init) for strbuffer_init
    pack_unpack.o(i.read_string) refers to strbuffer.o(i.strbuffer_append_bytes) for strbuffer_append_bytes
    pack_unpack.o(i.read_string) refers to strbuffer.o(i.strbuffer_steal_value) for strbuffer_steal_value
    pack_unpack.o(i.read_string) refers to strbuffer.o(i.strbuffer_close) for strbuffer_close
    pack_unpack.o(i.set_error) refers to error.o(i.jsonp_error_vset) for jsonp_error_vset
    pack_unpack.o(i.set_error) refers to error.o(i.jsonp_error_set_source) for jsonp_error_set_source
    pack_unpack.o(i.unpack) refers to pack_unpack.o(i.unpack_object) for unpack_object
    pack_unpack.o(i.unpack) refers to pack_unpack.o(i.unpack_array) for unpack_array
    pack_unpack.o(i.unpack) refers to pack_unpack.o(i.next_token) for next_token
    pack_unpack.o(i.unpack) refers to pack_unpack.o(i.prev_token) for prev_token
    pack_unpack.o(i.unpack) refers to value.o(i.json_string_value) for json_string_value
    pack_unpack.o(i.unpack) refers to value.o(i.json_string_length) for json_string_length
    pack_unpack.o(i.unpack) refers to pack_unpack.o(i.set_error) for set_error
    pack_unpack.o(i.unpack) refers to value.o(i.json_integer_value) for json_integer_value
    pack_unpack.o(i.unpack) refers to value.o(i.json_real_value) for json_real_value
    pack_unpack.o(i.unpack) refers to value.o(i.json_number_value) for json_number_value
    pack_unpack.o(i.unpack) refers to pack_unpack.o(i.json_incref) for json_incref
    pack_unpack.o(i.unpack) refers to pack_unpack.o(.constdata) for .constdata
    pack_unpack.o(i.unpack_array) refers to pack_unpack.o(i.next_token) for next_token
    pack_unpack.o(i.unpack_array) refers to pack_unpack.o(i.set_error) for set_error
    pack_unpack.o(i.unpack_array) refers to strchr.o(.text) for strchr
    pack_unpack.o(i.unpack_array) refers to value.o(i.json_array_get) for json_array_get
    pack_unpack.o(i.unpack_array) refers to pack_unpack.o(i.unpack) for unpack
    pack_unpack.o(i.unpack_array) refers to value.o(i.json_array_size) for json_array_size
    pack_unpack.o(i.unpack_array) refers to pack_unpack.o(.constdata) for .constdata
    pack_unpack.o(i.unpack_object) refers to hashtable.o(i.hashtable_init) for hashtable_init
    pack_unpack.o(i.unpack_object) refers to pack_unpack.o(i.set_error) for set_error
    pack_unpack.o(i.unpack_object) refers to pack_unpack.o(i.next_token) for next_token
    pack_unpack.o(i.unpack_object) refers to value.o(i.json_object_get) for json_object_get
    pack_unpack.o(i.unpack_object) refers to pack_unpack.o(i.unpack) for unpack
    pack_unpack.o(i.unpack_object) refers to value.o(i.json_null) for json_null
    pack_unpack.o(i.unpack_object) refers to hashtable.o(i.hashtable_set) for hashtable_set
    pack_unpack.o(i.unpack_object) refers to value.o(i.json_object_iter) for json_object_iter
    pack_unpack.o(i.unpack_object) refers to hashtable.o(i.hashtable_get) for hashtable_get
    pack_unpack.o(i.unpack_object) refers to value.o(i.json_object_key_to_iter) for json_object_key_to_iter
    pack_unpack.o(i.unpack_object) refers to value.o(i.json_object_iter_next) for json_object_iter_next
    pack_unpack.o(i.unpack_object) refers to value.o(i.json_object_iter_key) for json_object_iter_key
    pack_unpack.o(i.unpack_object) refers to value.o(i.json_object_iter_value) for json_object_iter_value
    pack_unpack.o(i.unpack_object) refers to value.o(i.json_object_size) for json_object_size
    pack_unpack.o(i.unpack_object) refers to hashtable.o(i.hashtable_close) for hashtable_close
    pack_unpack.o(i.unpack_object) refers to pack_unpack.o(.constdata) for .constdata
    pack_unpack.o(.constdata) refers to pack_unpack.o(.conststring) for .conststring
    value.o(i.array_copy) refers to memmovea.o(.text) for __aeabi_memcpy4
    value.o(i.array_move) refers to memmovea.o(.text) for __aeabi_memmove4
    value.o(i.json_array) refers to memory.o(i.jsonp_malloc) for jsonp_malloc
    value.o(i.json_array) refers to memory.o(i.jsonp_free) for jsonp_free
    value.o(i.json_array_append_new) refers to value.o(i.json_array_grow) for json_array_grow
    value.o(i.json_array_append_new) refers to value.o(i.json_decref) for json_decref
    value.o(i.json_array_clear) refers to value.o(i.json_decref) for json_decref
    value.o(i.json_array_extend) refers to value.o(i.json_array_grow) for json_array_grow
    value.o(i.json_array_extend) refers to value.o(i.json_incref) for json_incref
    value.o(i.json_array_extend) refers to value.o(i.array_copy) for array_copy
    value.o(i.json_array_grow) refers to memory.o(i.jsonp_malloc) for jsonp_malloc
    value.o(i.json_array_grow) refers to value.o(i.array_copy) for array_copy
    value.o(i.json_array_grow) refers to memory.o(i.jsonp_free) for jsonp_free
    value.o(i.json_array_insert_new) refers to value.o(i.json_array_grow) for json_array_grow
    value.o(i.json_array_insert_new) refers to value.o(i.array_copy) for array_copy
    value.o(i.json_array_insert_new) refers to memory.o(i.jsonp_free) for jsonp_free
    value.o(i.json_array_insert_new) refers to value.o(i.json_decref) for json_decref
    value.o(i.json_array_insert_new) refers to value.o(i.array_move) for array_move
    value.o(i.json_array_remove) refers to value.o(i.json_decref) for json_decref
    value.o(i.json_array_remove) refers to value.o(i.array_move) for array_move
    value.o(i.json_array_set_new) refers to value.o(i.json_decref) for json_decref
    value.o(i.json_copy) refers to value.o(i.json_object) for json_object
    value.o(i.json_copy) refers to value.o(i.json_object_iter) for json_object_iter
    value.o(i.json_copy) refers to value.o(i.json_object_set_nocheck) for json_object_set_nocheck
    value.o(i.json_copy) refers to value.o(i.json_object_key_to_iter) for json_object_key_to_iter
    value.o(i.json_copy) refers to value.o(i.json_object_iter_next) for json_object_iter_next
    value.o(i.json_copy) refers to value.o(i.json_object_iter_key) for json_object_iter_key
    value.o(i.json_copy) refers to value.o(i.json_object_iter_value) for json_object_iter_value
    value.o(i.json_copy) refers to value.o(i.json_array) for json_array
    value.o(i.json_copy) refers to value.o(i.json_array_get) for json_array_get
    value.o(i.json_copy) refers to value.o(i.json_incref) for json_incref
    value.o(i.json_copy) refers to value.o(i.json_array_append_new) for json_array_append_new
    value.o(i.json_copy) refers to value.o(i.json_array_size) for json_array_size
    value.o(i.json_copy) refers to value.o(i.json_string_copy) for json_string_copy
    value.o(i.json_copy) refers to value.o(i.json_integer_value) for json_integer_value
    value.o(i.json_copy) refers to value.o(i.json_integer) for json_integer
    value.o(i.json_copy) refers to value.o(i.json_real_value) for json_real_value
    value.o(i.json_copy) refers to value.o(i.json_real) for json_real
    value.o(i.json_decref) refers to value.o(i.json_delete) for json_delete
    value.o(i.json_deep_copy) refers to value.o(i.json_object_deep_copy) for json_object_deep_copy
    value.o(i.json_deep_copy) refers to value.o(i.json_array) for json_array
    value.o(i.json_deep_copy) refers to value.o(i.json_array_get) for json_array_get
    value.o(i.json_deep_copy) refers to value.o(i.json_array_append_new) for json_array_append_new
    value.o(i.json_deep_copy) refers to value.o(i.json_array_size) for json_array_size
    value.o(i.json_deep_copy) refers to value.o(i.json_string_copy) for json_string_copy
    value.o(i.json_deep_copy) refers to value.o(i.json_integer_value) for json_integer_value
    value.o(i.json_deep_copy) refers to value.o(i.json_integer) for json_integer
    value.o(i.json_deep_copy) refers to value.o(i.json_real_value) for json_real_value
    value.o(i.json_deep_copy) refers to value.o(i.json_real) for json_real
    value.o(i.json_delete) refers to hashtable.o(i.hashtable_close) for hashtable_close
    value.o(i.json_delete) refers to value.o(i.json_decref) for json_decref
    value.o(i.json_delete) refers to memory.o(i.jsonp_free) for jsonp_free
    value.o(i.json_equal) refers to value.o(i.json_object_equal) for json_object_equal
    value.o(i.json_equal) refers to value.o(i.json_array_size) for json_array_size
    value.o(i.json_equal) refers to value.o(i.json_array_get) for json_array_get
    value.o(i.json_equal) refers to memcmp.o(.text) for memcmp
    value.o(i.json_equal) refers to value.o(i.json_integer_value) for json_integer_value
    value.o(i.json_equal) refers to value.o(i.json_real_value) for json_real_value
    value.o(i.json_equal) refers to cdcmple.o(.text) for __aeabi_cdcmpeq
    value.o(i.json_false) refers to value.o(.data) for .data
    value.o(i.json_integer) refers to memory.o(i.jsonp_malloc) for jsonp_malloc
    value.o(i.json_null) refers to value.o(.data) for .data
    value.o(i.json_number_value) refers to value.o(i.json_integer_value) for json_integer_value
    value.o(i.json_number_value) refers to dfltl.o(.text) for __aeabi_l2d
    value.o(i.json_number_value) refers to value.o(i.json_real_value) for json_real_value
    value.o(i.json_object) refers to memory.o(i.jsonp_malloc) for jsonp_malloc
    value.o(i.json_object) refers to hashtable_seed.o(i.json_object_seed) for json_object_seed
    value.o(i.json_object) refers to hashtable.o(i.hashtable_init) for hashtable_init
    value.o(i.json_object) refers to memory.o(i.jsonp_free) for jsonp_free
    value.o(i.json_object) refers to hashtable_seed.o(.data) for hashtable_seed
    value.o(i.json_object_clear) refers to hashtable.o(i.hashtable_clear) for hashtable_clear
    value.o(i.json_object_deep_copy) refers to value.o(i.json_object) for json_object
    value.o(i.json_object_deep_copy) refers to value.o(i.json_object_iter) for json_object_iter
    value.o(i.json_object_deep_copy) refers to value.o(i.json_object_iter_key) for json_object_iter_key
    value.o(i.json_object_deep_copy) refers to value.o(i.json_object_iter_value) for json_object_iter_value
    value.o(i.json_object_deep_copy) refers to value.o(i.json_deep_copy) for json_deep_copy
    value.o(i.json_object_deep_copy) refers to value.o(i.json_object_set_new_nocheck) for json_object_set_new_nocheck
    value.o(i.json_object_deep_copy) refers to value.o(i.json_object_iter_next) for json_object_iter_next
    value.o(i.json_object_del) refers to hashtable.o(i.hashtable_del) for hashtable_del
    value.o(i.json_object_equal) refers to value.o(i.json_object_size) for json_object_size
    value.o(i.json_object_equal) refers to value.o(i.json_object_iter) for json_object_iter
    value.o(i.json_object_equal) refers to value.o(i.json_object_get) for json_object_get
    value.o(i.json_object_equal) refers to value.o(i.json_equal) for json_equal
    value.o(i.json_object_equal) refers to value.o(i.json_object_key_to_iter) for json_object_key_to_iter
    value.o(i.json_object_equal) refers to value.o(i.json_object_iter_next) for json_object_iter_next
    value.o(i.json_object_equal) refers to value.o(i.json_object_iter_key) for json_object_iter_key
    value.o(i.json_object_equal) refers to value.o(i.json_object_iter_value) for json_object_iter_value
    value.o(i.json_object_get) refers to hashtable.o(i.hashtable_get) for hashtable_get
    value.o(i.json_object_iter) refers to hashtable.o(i.hashtable_iter) for hashtable_iter
    value.o(i.json_object_iter_at) refers to hashtable.o(i.hashtable_iter_at) for hashtable_iter_at
    value.o(i.json_object_iter_key) refers to hashtable.o(i.hashtable_iter_key) for hashtable_iter_key
    value.o(i.json_object_iter_next) refers to hashtable.o(i.hashtable_iter_next) for hashtable_iter_next
    value.o(i.json_object_iter_set_new) refers to hashtable.o(i.hashtable_iter_set) for hashtable_iter_set
    value.o(i.json_object_iter_value) refers to hashtable.o(i.hashtable_iter_value) for hashtable_iter_value
    value.o(i.json_object_set_new) refers to strlen.o(.text) for strlen
    value.o(i.json_object_set_new) refers to utf.o(i.utf8_check_string) for utf8_check_string
    value.o(i.json_object_set_new) refers to value.o(i.json_object_set_new_nocheck) for json_object_set_new_nocheck
    value.o(i.json_object_set_new) refers to value.o(i.json_decref) for json_decref
    value.o(i.json_object_set_new_nocheck) refers to hashtable.o(i.hashtable_set) for hashtable_set
    value.o(i.json_object_set_new_nocheck) refers to value.o(i.json_decref) for json_decref
    value.o(i.json_object_set_nocheck) refers to value.o(i.json_incref) for json_incref
    value.o(i.json_object_set_nocheck) refers to value.o(i.json_object_set_new_nocheck) for json_object_set_new_nocheck
    value.o(i.json_object_update) refers to value.o(i.json_object_iter) for json_object_iter
    value.o(i.json_object_update) refers to value.o(i.json_object_set_nocheck) for json_object_set_nocheck
    value.o(i.json_object_update) refers to value.o(i.json_object_key_to_iter) for json_object_key_to_iter
    value.o(i.json_object_update) refers to value.o(i.json_object_iter_next) for json_object_iter_next
    value.o(i.json_object_update) refers to value.o(i.json_object_iter_key) for json_object_iter_key
    value.o(i.json_object_update) refers to value.o(i.json_object_iter_value) for json_object_iter_value
    value.o(i.json_object_update_existing) refers to value.o(i.json_object_iter) for json_object_iter
    value.o(i.json_object_update_existing) refers to value.o(i.json_object_get) for json_object_get
    value.o(i.json_object_update_existing) refers to value.o(i.json_object_set_nocheck) for json_object_set_nocheck
    value.o(i.json_object_update_existing) refers to value.o(i.json_object_key_to_iter) for json_object_key_to_iter
    value.o(i.json_object_update_existing) refers to value.o(i.json_object_iter_next) for json_object_iter_next
    value.o(i.json_object_update_existing) refers to value.o(i.json_object_iter_key) for json_object_iter_key
    value.o(i.json_object_update_existing) refers to value.o(i.json_object_iter_value) for json_object_iter_value
    value.o(i.json_object_update_missing) refers to value.o(i.json_object_iter) for json_object_iter
    value.o(i.json_object_update_missing) refers to value.o(i.json_object_get) for json_object_get
    value.o(i.json_object_update_missing) refers to value.o(i.json_object_set_nocheck) for json_object_set_nocheck
    value.o(i.json_object_update_missing) refers to value.o(i.json_object_key_to_iter) for json_object_key_to_iter
    value.o(i.json_object_update_missing) refers to value.o(i.json_object_iter_next) for json_object_iter_next
    value.o(i.json_object_update_missing) refers to value.o(i.json_object_iter_key) for json_object_iter_key
    value.o(i.json_object_update_missing) refers to value.o(i.json_object_iter_value) for json_object_iter_value
    value.o(i.json_real) refers to value.o(i.__ARM_isnan) for __ARM_isnan
    value.o(i.json_real) refers to value.o(i.__ARM_isinf) for __ARM_isinf
    value.o(i.json_real) refers to memory.o(i.jsonp_malloc) for jsonp_malloc
    value.o(i.json_real_set) refers to value.o(i.__ARM_isnan) for __ARM_isnan
    value.o(i.json_real_set) refers to value.o(i.__ARM_isinf) for __ARM_isinf
    value.o(i.json_string) refers to strlen.o(.text) for strlen
    value.o(i.json_string) refers to value.o(i.json_stringn) for json_stringn
    value.o(i.json_string_copy) refers to value.o(i.string_create) for string_create
    value.o(i.json_string_nocheck) refers to strlen.o(.text) for strlen
    value.o(i.json_string_nocheck) refers to value.o(i.string_create) for string_create
    value.o(i.json_string_set) refers to strlen.o(.text) for strlen
    value.o(i.json_string_set) refers to value.o(i.json_string_setn) for json_string_setn
    value.o(i.json_string_set_nocheck) refers to strlen.o(.text) for strlen
    value.o(i.json_string_set_nocheck) refers to value.o(i.json_string_setn_nocheck) for json_string_setn_nocheck
    value.o(i.json_string_setn) refers to utf.o(i.utf8_check_string) for utf8_check_string
    value.o(i.json_string_setn) refers to value.o(i.json_string_setn_nocheck) for json_string_setn_nocheck
    value.o(i.json_string_setn_nocheck) refers to memory.o(i.jsonp_strndup) for jsonp_strndup
    value.o(i.json_string_setn_nocheck) refers to memory.o(i.jsonp_free) for jsonp_free
    value.o(i.json_stringn) refers to utf.o(i.utf8_check_string) for utf8_check_string
    value.o(i.json_stringn) refers to value.o(i.string_create) for string_create
    value.o(i.json_stringn_nocheck) refers to value.o(i.string_create) for string_create
    value.o(i.json_true) refers to value.o(.data) for .data
    value.o(i.jsonp_stringn_nocheck_own) refers to value.o(i.string_create) for string_create
    value.o(i.string_create) refers to memory.o(i.jsonp_strndup) for jsonp_strndup
    value.o(i.string_create) refers to memory.o(i.jsonp_malloc) for jsonp_malloc
    value.o(i.string_create) refers to memory.o(i.jsonp_free) for jsonp_free
    error.o(i.jsonp_error_init) refers to error.o(i.jsonp_error_set_source) for jsonp_error_set_source
    error.o(i.jsonp_error_set) refers to error.o(i.jsonp_error_vset) for jsonp_error_vset
    error.o(i.jsonp_error_set_source) refers to strlen.o(.text) for strlen
    error.o(i.jsonp_error_set_source) refers to strcpy.o(.text) for strcpy
    error.o(i.jsonp_error_vset) refers to printfa.o(i.__0vsnprintf) for __c89vsnprintf
    hashtable.o(i.hashlittle) refers to dump.o(i.__ARM_common_switch8) for __ARM_common_switch8
    hashtable.o(i.hashtable_clear) refers to hashtable.o(i.hashtable_do_clear) for hashtable_do_clear
    hashtable.o(i.hashtable_close) refers to hashtable.o(i.hashtable_do_clear) for hashtable_do_clear
    hashtable.o(i.hashtable_close) refers to memory.o(i.jsonp_free) for jsonp_free
    hashtable.o(i.hashtable_del) refers to strlen.o(.text) for strlen
    hashtable.o(i.hashtable_del) refers to hashtable.o(i.hashlittle) for hashlittle
    hashtable.o(i.hashtable_del) refers to hashtable.o(i.hashtable_do_del) for hashtable_do_del
    hashtable.o(i.hashtable_del) refers to hashtable_seed.o(.data) for hashtable_seed
    hashtable.o(i.hashtable_do_clear) refers to hashtable.o(i.json_decref) for json_decref
    hashtable.o(i.hashtable_do_clear) refers to memory.o(i.jsonp_free) for jsonp_free
    hashtable.o(i.hashtable_do_del) refers to hashtable.o(i.hashtable_find_pair) for hashtable_find_pair
    hashtable.o(i.hashtable_do_del) refers to hashtable.o(i.json_decref) for json_decref
    hashtable.o(i.hashtable_do_del) refers to memory.o(i.jsonp_free) for jsonp_free
    hashtable.o(i.hashtable_do_rehash) refers to memory.o(i.jsonp_free) for jsonp_free
    hashtable.o(i.hashtable_do_rehash) refers to memory.o(i.jsonp_malloc) for jsonp_malloc
    hashtable.o(i.hashtable_do_rehash) refers to uidiv.o(.text) for __aeabi_uidivmod
    hashtable.o(i.hashtable_do_rehash) refers to hashtable.o(i.insert_to_bucket) for insert_to_bucket
    hashtable.o(i.hashtable_find_pair) refers to hashtable.o(i.bucket_is_empty) for bucket_is_empty
    hashtable.o(i.hashtable_find_pair) refers to strcmp.o(.text) for strcmp
    hashtable.o(i.hashtable_get) refers to strlen.o(.text) for strlen
    hashtable.o(i.hashtable_get) refers to hashtable.o(i.hashlittle) for hashlittle
    hashtable.o(i.hashtable_get) refers to hashtable.o(i.hashtable_find_pair) for hashtable_find_pair
    hashtable.o(i.hashtable_get) refers to hashtable_seed.o(.data) for hashtable_seed
    hashtable.o(i.hashtable_init) refers to memory.o(i.jsonp_malloc) for jsonp_malloc
    hashtable.o(i.hashtable_iter) refers to hashtable.o(i.hashtable_iter_next) for hashtable_iter_next
    hashtable.o(i.hashtable_iter_at) refers to strlen.o(.text) for strlen
    hashtable.o(i.hashtable_iter_at) refers to hashtable.o(i.hashlittle) for hashlittle
    hashtable.o(i.hashtable_iter_at) refers to hashtable.o(i.hashtable_find_pair) for hashtable_find_pair
    hashtable.o(i.hashtable_iter_at) refers to hashtable_seed.o(.data) for hashtable_seed
    hashtable.o(i.hashtable_iter_set) refers to hashtable.o(i.json_decref) for json_decref
    hashtable.o(i.hashtable_set) refers to hashtable.o(i.hashtable_do_rehash) for hashtable_do_rehash
    hashtable.o(i.hashtable_set) refers to strlen.o(.text) for strlen
    hashtable.o(i.hashtable_set) refers to hashtable.o(i.hashlittle) for hashlittle
    hashtable.o(i.hashtable_set) refers to hashtable.o(i.hashtable_find_pair) for hashtable_find_pair
    hashtable.o(i.hashtable_set) refers to hashtable.o(i.json_decref) for json_decref
    hashtable.o(i.hashtable_set) refers to memory.o(i.jsonp_malloc) for jsonp_malloc
    hashtable.o(i.hashtable_set) refers to strcpy.o(.text) for strcpy
    hashtable.o(i.hashtable_set) refers to hashtable.o(i.insert_to_bucket) for insert_to_bucket
    hashtable.o(i.hashtable_set) refers to hashtable_seed.o(.data) for hashtable_seed
    hashtable.o(i.insert_to_bucket) refers to hashtable.o(i.bucket_is_empty) for bucket_is_empty
    hashtable.o(i.insert_to_bucket) refers to hashtable.o(i.list_insert) for list_insert
    hashtable.o(i.json_decref) refers to value.o(i.json_delete) for json_delete
    memory.o(i.json_set_alloc_funcs) refers to memory.o(.data) for .data
    memory.o(i.jsonp_free) refers to memory.o(.data) for .data
    memory.o(i.jsonp_malloc) refers to memory.o(.data) for .data
    memory.o(i.jsonp_strdup) refers to strlen.o(.text) for strlen
    memory.o(i.jsonp_strdup) refers to memory.o(i.jsonp_strndup) for jsonp_strndup
    memory.o(i.jsonp_strndup) refers to memory.o(i.jsonp_malloc) for jsonp_malloc
    memory.o(i.jsonp_strndup) refers to memmovea.o(.text) for __aeabi_memcpy
    memory.o(.data) refers to malloc.o(i.malloc) for malloc
    memory.o(.data) refers to malloc.o(i.free) for free
    strbuffer.o(i.strbuffer_append) refers to strlen.o(.text) for strlen
    strbuffer.o(i.strbuffer_append) refers to strbuffer.o(i.strbuffer_append_bytes) for strbuffer_append_bytes
    strbuffer.o(i.strbuffer_append_byte) refers to strbuffer.o(i.strbuffer_append_bytes) for strbuffer_append_bytes
    strbuffer.o(i.strbuffer_append_bytes) refers to memory.o(i.jsonp_malloc) for jsonp_malloc
    strbuffer.o(i.strbuffer_append_bytes) refers to memmovea.o(.text) for __aeabi_memcpy
    strbuffer.o(i.strbuffer_append_bytes) refers to memory.o(i.jsonp_free) for jsonp_free
    strbuffer.o(i.strbuffer_close) refers to memory.o(i.jsonp_free) for jsonp_free
    strbuffer.o(i.strbuffer_init) refers to memory.o(i.jsonp_malloc) for jsonp_malloc
    strconv.o(i.jsonp_dtostr) refers to printfa.o(i.__0snprintf) for __2snprintf
    strconv.o(i.jsonp_dtostr) refers to strchr.o(.text) for strchr
    strconv.o(i.jsonp_dtostr) refers to memmovea.o(.text) for __aeabi_memmove
    strconv.o(i.jsonp_strtod) refers to errno.o(i.__aeabi_errno_addr) for __aeabi_errno_addr
    strconv.o(i.jsonp_strtod) refers to strtod.o(i.strtod) for strtod
    strconv.o(i.jsonp_strtod) refers to cdcmple.o(.text) for __aeabi_cdcmpeq
    utf.o(i.utf8_check_string) refers to utf.o(i.utf8_check_first) for utf8_check_first
    utf.o(i.utf8_check_string) refers to utf.o(i.utf8_check_full) for utf8_check_full
    utf.o(i.utf8_iterate) refers to utf.o(i.utf8_check_first) for utf8_check_first
    utf.o(i.utf8_iterate) refers to utf.o(i.utf8_check_full) for utf8_check_full
    hashtable_seed.o(i.json_object_seed) refers to jansson_config.o(i.seed_from_timestamp_and_pid) for seed_from_timestamp_and_pid
    hashtable_seed.o(i.json_object_seed) refers to hashtable_seed.o(.data) for .data
    strtod.o(i.__softfp_strtod) refers (Special) to iusefp.o(.text) for __I$use$fp
    strtod.o(i.__softfp_strtod) refers to strtod.o(.text) for __strtod_int
    strtod.o(i.strtod) refers (Special) to iusefp.o(.text) for __I$use$fp
    strtod.o(i.strtod) refers to strtod.o(.text) for __strtod_int
    entry.o(.ARM.Collect$$$$00000000) refers (Special) to entry10a.o(.ARM.Collect$$$$0000000D) for __rt_final_cpp
    entry.o(.ARM.Collect$$$$00000000) refers (Special) to entry11a.o(.ARM.Collect$$$$0000000F) for __rt_final_exit
    entry.o(.ARM.Collect$$$$00000000) refers (Special) to entry7b.o(.ARM.Collect$$$$00000008) for _main_clock
    entry.o(.ARM.Collect$$$$00000000) refers (Special) to entry8b.o(.ARM.Collect$$$$0000000A) for _main_cpp_init
    entry.o(.ARM.Collect$$$$00000000) refers (Special) to entry9a.o(.ARM.Collect$$$$0000000B) for _main_init
    entry.o(.ARM.Collect$$$$00000000) refers (Special) to entry5.o(.ARM.Collect$$$$00000004) for _main_scatterload
    entry.o(.ARM.Collect$$$$00000000) refers (Special) to entry2.o(.ARM.Collect$$$$00000001) for _main_stk
    fgetc.o(.text) refers (Special) to iusesemig.o(.text) for __I$use$semihosting$fgetc
    fgetc.o(.text) refers (Special) to semi.o(.text) for __semihosting_library_function
    fgetc_u.o(.text) refers (Special) to iusesemig.o(.text) for __I$use$semihosting$fgetc
    fgetc_u.o(.text) refers (Special) to semi.o(.text) for __semihosting_library_function
    fgetc_u.o(.text) refers to fgetc_u.o(.data) for .data
    fgetc_u.o(.data) refers (Special) to iusesemig.o(.text) for __I$use$semihosting$fgetc
    fgetc_u.o(.data) refers (Special) to semi.o(.text) for __semihosting_library_function
    fgetc_b.o(.text) refers (Special) to iusesemig.o(.text) for __I$use$semihosting$fgetc
    fgetc_b.o(.text) refers (Special) to semi.o(.text) for __semihosting_library_function
    fgetc_b.o(.text) refers to fgetc_b.o(.data) for .data
    fgetc_b.o(.data) refers (Special) to iusesemig.o(.text) for __I$use$semihosting$fgetc
    fgetc_b.o(.data) refers (Special) to semi.o(.text) for __semihosting_library_function
    fgetc_ub.o(.text) refers (Special) to iusesemig.o(.text) for __I$use$semihosting$fgetc
    fgetc_ub.o(.text) refers (Special) to semi.o(.text) for __semihosting_library_function
    fgetc_ub.o(.text) refers to fgetc_ub.o(.data) for .data
    fgetc_ub.o(.data) refers (Special) to iusesemig.o(.text) for __I$use$semihosting$fgetc
    fgetc_ub.o(.data) refers (Special) to semi.o(.text) for __semihosting_library_function
    fwrite.o(i.fwrite) refers to fputc.o(i.fputc) for fputc
    fwrite_e.o(.text) refers to fputc.o(i.fputc) for fputc
    localtime.o(.text) refers to localtime.o(.bss) for .bss
    localtime.o(.text) refers to localtime.o(.constdata) for .constdata
    mktime.o(.text) refers to localtime_i.o(.text) for _localtime
    mktime.o(.text) refers to mktime.o(.constdata) for .constdata
    printfb.o(i.__0fprintf$bare) refers to printfb.o(i._printf_core) for _printf_core
    printfb.o(i.__0fprintf$bare) refers to fputc.o(i.fputc) for fputc
    printfb.o(i.__0printf$bare) refers to printfb.o(i._printf_core) for _printf_core
    printfb.o(i.__0printf$bare) refers to fputc.o(i.fputc) for fputc
    printfb.o(i.__0printf$bare) refers to stdout.o(.data) for __stdout
    printfb.o(i.__0snprintf$bare) refers to printfb.o(i._printf_core) for _printf_core
    printfb.o(i.__0snprintf$bare) refers to printfb.o(i._snputc) for _snputc
    printfb.o(i.__0sprintf$bare) refers to printfb.o(i._printf_core) for _printf_core
    printfb.o(i.__0sprintf$bare) refers to printfb.o(i._sputc) for _sputc
    printfb.o(i.__0vfprintf$bare) refers to printfb.o(i._printf_core) for _printf_core
    printfb.o(i.__0vfprintf$bare) refers to fputc.o(i.fputc) for fputc
    printfb.o(i.__0vprintf$bare) refers to printfb.o(i._printf_core) for _printf_core
    printfb.o(i.__0vprintf$bare) refers to fputc.o(i.fputc) for fputc
    printfb.o(i.__0vprintf$bare) refers to stdout.o(.data) for __stdout
    printfb.o(i.__0vsnprintf$bare) refers to printfb.o(i._printf_core) for _printf_core
    printfb.o(i.__0vsnprintf$bare) refers to printfb.o(i._snputc) for _snputc
    printfb.o(i.__0vsprintf$bare) refers to printfb.o(i._printf_core) for _printf_core
    printfb.o(i.__0vsprintf$bare) refers to printfb.o(i._sputc) for _sputc
    printf0.o(i.__0fprintf$0) refers to printf0.o(i._printf_core) for _printf_core
    printf0.o(i.__0fprintf$0) refers to fputc.o(i.fputc) for fputc
    printf0.o(i.__0printf$0) refers to printf0.o(i._printf_core) for _printf_core
    printf0.o(i.__0printf$0) refers to fputc.o(i.fputc) for fputc
    printf0.o(i.__0printf$0) refers to stdout.o(.data) for __stdout
    printf0.o(i.__0snprintf$0) refers to printf0.o(i._printf_core) for _printf_core
    printf0.o(i.__0snprintf$0) refers to printf0.o(i._snputc) for _snputc
    printf0.o(i.__0sprintf$0) refers to printf0.o(i._printf_core) for _printf_core
    printf0.o(i.__0sprintf$0) refers to printf0.o(i._sputc) for _sputc
    printf0.o(i.__0vfprintf$0) refers to printf0.o(i._printf_core) for _printf_core
    printf0.o(i.__0vfprintf$0) refers to fputc.o(i.fputc) for fputc
    printf0.o(i.__0vprintf$0) refers to printf0.o(i._printf_core) for _printf_core
    printf0.o(i.__0vprintf$0) refers to fputc.o(i.fputc) for fputc
    printf0.o(i.__0vprintf$0) refers to stdout.o(.data) for __stdout
    printf0.o(i.__0vsnprintf$0) refers to printf0.o(i._printf_core) for _printf_core
    printf0.o(i.__0vsnprintf$0) refers to printf0.o(i._snputc) for _snputc
    printf0.o(i.__0vsprintf$0) refers to printf0.o(i._printf_core) for _printf_core
    printf0.o(i.__0vsprintf$0) refers to printf0.o(i._sputc) for _sputc
    printf1.o(i.__0fprintf$1) refers to printf1.o(i._printf_core) for _printf_core
    printf1.o(i.__0fprintf$1) refers to fputc.o(i.fputc) for fputc
    printf1.o(i.__0printf$1) refers to printf1.o(i._printf_core) for _printf_core
    printf1.o(i.__0printf$1) refers to fputc.o(i.fputc) for fputc
    printf1.o(i.__0printf$1) refers to stdout.o(.data) for __stdout
    printf1.o(i.__0snprintf$1) refers to printf1.o(i._printf_core) for _printf_core
    printf1.o(i.__0snprintf$1) refers to printf1.o(i._snputc) for _snputc
    printf1.o(i.__0sprintf$1) refers to printf1.o(i._printf_core) for _printf_core
    printf1.o(i.__0sprintf$1) refers to printf1.o(i._sputc) for _sputc
    printf1.o(i.__0vfprintf$1) refers to printf1.o(i._printf_core) for _printf_core
    printf1.o(i.__0vfprintf$1) refers to fputc.o(i.fputc) for fputc
    printf1.o(i.__0vprintf$1) refers to printf1.o(i._printf_core) for _printf_core
    printf1.o(i.__0vprintf$1) refers to fputc.o(i.fputc) for fputc
    printf1.o(i.__0vprintf$1) refers to stdout.o(.data) for __stdout
    printf1.o(i.__0vsnprintf$1) refers to printf1.o(i._printf_core) for _printf_core
    printf1.o(i.__0vsnprintf$1) refers to printf1.o(i._snputc) for _snputc
    printf1.o(i.__0vsprintf$1) refers to printf1.o(i._printf_core) for _printf_core
    printf1.o(i.__0vsprintf$1) refers to printf1.o(i._sputc) for _sputc
    printf1.o(i._printf_core) refers to uidiv.o(.text) for __aeabi_uidivmod
    printf2.o(i.__0fprintf$2) refers to printf2.o(i._printf_core) for _printf_core
    printf2.o(i.__0fprintf$2) refers to fputc.o(i.fputc) for fputc
    printf2.o(i.__0printf$2) refers to printf2.o(i._printf_core) for _printf_core
    printf2.o(i.__0printf$2) refers to fputc.o(i.fputc) for fputc
    printf2.o(i.__0printf$2) refers to stdout.o(.data) for __stdout
    printf2.o(i.__0snprintf$2) refers to printf2.o(i._printf_core) for _printf_core
    printf2.o(i.__0snprintf$2) refers to printf2.o(i._snputc) for _snputc
    printf2.o(i.__0sprintf$2) refers to printf2.o(i._printf_core) for _printf_core
    printf2.o(i.__0sprintf$2) refers to printf2.o(i._sputc) for _sputc
    printf2.o(i.__0vfprintf$2) refers to printf2.o(i._printf_core) for _printf_core
    printf2.o(i.__0vfprintf$2) refers to fputc.o(i.fputc) for fputc
    printf2.o(i.__0vprintf$2) refers to printf2.o(i._printf_core) for _printf_core
    printf2.o(i.__0vprintf$2) refers to fputc.o(i.fputc) for fputc
    printf2.o(i.__0vprintf$2) refers to stdout.o(.data) for __stdout
    printf2.o(i.__0vsnprintf$2) refers to printf2.o(i._printf_core) for _printf_core
    printf2.o(i.__0vsnprintf$2) refers to printf2.o(i._snputc) for _snputc
    printf2.o(i.__0vsprintf$2) refers to printf2.o(i._printf_core) for _printf_core
    printf2.o(i.__0vsprintf$2) refers to printf2.o(i._sputc) for _sputc
    printf3.o(i.__0fprintf$3) refers to printf3.o(i._printf_core) for _printf_core
    printf3.o(i.__0fprintf$3) refers to fputc.o(i.fputc) for fputc
    printf3.o(i.__0printf$3) refers to printf3.o(i._printf_core) for _printf_core
    printf3.o(i.__0printf$3) refers to fputc.o(i.fputc) for fputc
    printf3.o(i.__0printf$3) refers to stdout.o(.data) for __stdout
    printf3.o(i.__0snprintf$3) refers to printf3.o(i._printf_core) for _printf_core
    printf3.o(i.__0snprintf$3) refers to printf3.o(i._snputc) for _snputc
    printf3.o(i.__0sprintf$3) refers to printf3.o(i._printf_core) for _printf_core
    printf3.o(i.__0sprintf$3) refers to printf3.o(i._sputc) for _sputc
    printf3.o(i.__0vfprintf$3) refers to printf3.o(i._printf_core) for _printf_core
    printf3.o(i.__0vfprintf$3) refers to fputc.o(i.fputc) for fputc
    printf3.o(i.__0vprintf$3) refers to printf3.o(i._printf_core) for _printf_core
    printf3.o(i.__0vprintf$3) refers to fputc.o(i.fputc) for fputc
    printf3.o(i.__0vprintf$3) refers to stdout.o(.data) for __stdout
    printf3.o(i.__0vsnprintf$3) refers to printf3.o(i._printf_core) for _printf_core
    printf3.o(i.__0vsnprintf$3) refers to printf3.o(i._snputc) for _snputc
    printf3.o(i.__0vsprintf$3) refers to printf3.o(i._printf_core) for _printf_core
    printf3.o(i.__0vsprintf$3) refers to printf3.o(i._sputc) for _sputc
    printf3.o(i._printf_core) refers to uidiv.o(.text) for __aeabi_uidivmod
    printf4.o(i.__0fprintf$4) refers to printf4.o(i._printf_core) for _printf_core
    printf4.o(i.__0fprintf$4) refers to fputc.o(i.fputc) for fputc
    printf4.o(i.__0printf$4) refers to printf4.o(i._printf_core) for _printf_core
    printf4.o(i.__0printf$4) refers to fputc.o(i.fputc) for fputc
    printf4.o(i.__0printf$4) refers to stdout.o(.data) for __stdout
    printf4.o(i.__0snprintf$4) refers to printf4.o(i._printf_core) for _printf_core
    printf4.o(i.__0snprintf$4) refers to printf4.o(i._snputc) for _snputc
    printf4.o(i.__0sprintf$4) refers to printf4.o(i._printf_core) for _printf_core
    printf4.o(i.__0sprintf$4) refers to printf4.o(i._sputc) for _sputc
    printf4.o(i.__0vfprintf$4) refers to printf4.o(i._printf_core) for _printf_core
    printf4.o(i.__0vfprintf$4) refers to fputc.o(i.fputc) for fputc
    printf4.o(i.__0vprintf$4) refers to printf4.o(i._printf_core) for _printf_core
    printf4.o(i.__0vprintf$4) refers to fputc.o(i.fputc) for fputc
    printf4.o(i.__0vprintf$4) refers to stdout.o(.data) for __stdout
    printf4.o(i.__0vsnprintf$4) refers to printf4.o(i._printf_core) for _printf_core
    printf4.o(i.__0vsnprintf$4) refers to printf4.o(i._snputc) for _snputc
    printf4.o(i.__0vsprintf$4) refers to printf4.o(i._printf_core) for _printf_core
    printf4.o(i.__0vsprintf$4) refers to printf4.o(i._sputc) for _sputc
    printf4.o(i._printf_core) refers to uldiv.o(.text) for __aeabi_uldivmod
    printf5.o(i.__0fprintf$5) refers to printf5.o(i._printf_core) for _printf_core
    printf5.o(i.__0fprintf$5) refers to fputc.o(i.fputc) for fputc
    printf5.o(i.__0printf$5) refers to printf5.o(i._printf_core) for _printf_core
    printf5.o(i.__0printf$5) refers to fputc.o(i.fputc) for fputc
    printf5.o(i.__0printf$5) refers to stdout.o(.data) for __stdout
    printf5.o(i.__0snprintf$5) refers to printf5.o(i._printf_core) for _printf_core
    printf5.o(i.__0snprintf$5) refers to printf5.o(i._snputc) for _snputc
    printf5.o(i.__0sprintf$5) refers to printf5.o(i._printf_core) for _printf_core
    printf5.o(i.__0sprintf$5) refers to printf5.o(i._sputc) for _sputc
    printf5.o(i.__0vfprintf$5) refers to printf5.o(i._printf_core) for _printf_core
    printf5.o(i.__0vfprintf$5) refers to fputc.o(i.fputc) for fputc
    printf5.o(i.__0vprintf$5) refers to printf5.o(i._printf_core) for _printf_core
    printf5.o(i.__0vprintf$5) refers to fputc.o(i.fputc) for fputc
    printf5.o(i.__0vprintf$5) refers to stdout.o(.data) for __stdout
    printf5.o(i.__0vsnprintf$5) refers to printf5.o(i._printf_core) for _printf_core
    printf5.o(i.__0vsnprintf$5) refers to printf5.o(i._snputc) for _snputc
    printf5.o(i.__0vsprintf$5) refers to printf5.o(i._printf_core) for _printf_core
    printf5.o(i.__0vsprintf$5) refers to printf5.o(i._sputc) for _sputc
    printf5.o(i._printf_core) refers to uldiv.o(.text) for __aeabi_uldivmod
    printf6.o(i.__0fprintf$6) refers to printf6.o(i._printf_core) for _printf_core
    printf6.o(i.__0fprintf$6) refers to fputc.o(i.fputc) for fputc
    printf6.o(i.__0printf$6) refers to printf6.o(i._printf_core) for _printf_core
    printf6.o(i.__0printf$6) refers to fputc.o(i.fputc) for fputc
    printf6.o(i.__0printf$6) refers to stdout.o(.data) for __stdout
    printf6.o(i.__0snprintf$6) refers to printf6.o(i._printf_core) for _printf_core
    printf6.o(i.__0snprintf$6) refers to printf6.o(i._snputc) for _snputc
    printf6.o(i.__0sprintf$6) refers to printf6.o(i._printf_core) for _printf_core
    printf6.o(i.__0sprintf$6) refers to printf6.o(i._sputc) for _sputc
    printf6.o(i.__0vfprintf$6) refers to printf6.o(i._printf_core) for _printf_core
    printf6.o(i.__0vfprintf$6) refers to fputc.o(i.fputc) for fputc
    printf6.o(i.__0vprintf$6) refers to printf6.o(i._printf_core) for _printf_core
    printf6.o(i.__0vprintf$6) refers to fputc.o(i.fputc) for fputc
    printf6.o(i.__0vprintf$6) refers to stdout.o(.data) for __stdout
    printf6.o(i.__0vsnprintf$6) refers to printf6.o(i._printf_core) for _printf_core
    printf6.o(i.__0vsnprintf$6) refers to printf6.o(i._snputc) for _snputc
    printf6.o(i.__0vsprintf$6) refers to printf6.o(i._printf_core) for _printf_core
    printf6.o(i.__0vsprintf$6) refers to printf6.o(i._sputc) for _sputc
    printf6.o(i._printf_core) refers to printf6.o(i._printf_pre_padding) for _printf_pre_padding
    printf6.o(i._printf_core) refers to uidiv.o(.text) for __aeabi_uidivmod
    printf6.o(i._printf_core) refers to printf6.o(i._printf_post_padding) for _printf_post_padding
    printf7.o(i.__0fprintf$7) refers to printf7.o(i._printf_core) for _printf_core
    printf7.o(i.__0fprintf$7) refers to fputc.o(i.fputc) for fputc
    printf7.o(i.__0printf$7) refers to printf7.o(i._printf_core) for _printf_core
    printf7.o(i.__0printf$7) refers to fputc.o(i.fputc) for fputc
    printf7.o(i.__0printf$7) refers to stdout.o(.data) for __stdout
    printf7.o(i.__0snprintf$7) refers to printf7.o(i._printf_core) for _printf_core
    printf7.o(i.__0snprintf$7) refers to printf7.o(i._snputc) for _snputc
    printf7.o(i.__0sprintf$7) refers to printf7.o(i._printf_core) for _printf_core
    printf7.o(i.__0sprintf$7) refers to printf7.o(i._sputc) for _sputc
    printf7.o(i.__0vfprintf$7) refers to printf7.o(i._printf_core) for _printf_core
    printf7.o(i.__0vfprintf$7) refers to fputc.o(i.fputc) for fputc
    printf7.o(i.__0vprintf$7) refers to printf7.o(i._printf_core) for _printf_core
    printf7.o(i.__0vprintf$7) refers to fputc.o(i.fputc) for fputc
    printf7.o(i.__0vprintf$7) refers to stdout.o(.data) for __stdout
    printf7.o(i.__0vsnprintf$7) refers to printf7.o(i._printf_core) for _printf_core
    printf7.o(i.__0vsnprintf$7) refers to printf7.o(i._snputc) for _snputc
    printf7.o(i.__0vsprintf$7) refers to printf7.o(i._printf_core) for _printf_core
    printf7.o(i.__0vsprintf$7) refers to printf7.o(i._sputc) for _sputc
    printf7.o(i._printf_core) refers to printf7.o(i._printf_pre_padding) for _printf_pre_padding
    printf7.o(i._printf_core) refers to uldiv.o(.text) for __aeabi_uldivmod
    printf7.o(i._printf_core) refers to printf7.o(i._printf_post_padding) for _printf_post_padding
    printf8.o(i.__0fprintf$8) refers to printf8.o(i._printf_core) for _printf_core
    printf8.o(i.__0fprintf$8) refers to fputc.o(i.fputc) for fputc
    printf8.o(i.__0printf$8) refers to printf8.o(i._printf_core) for _printf_core
    printf8.o(i.__0printf$8) refers to fputc.o(i.fputc) for fputc
    printf8.o(i.__0printf$8) refers to stdout.o(.data) for __stdout
    printf8.o(i.__0snprintf$8) refers to printf8.o(i._printf_core) for _printf_core
    printf8.o(i.__0snprintf$8) refers to printf8.o(i._snputc) for _snputc
    printf8.o(i.__0sprintf$8) refers to printf8.o(i._printf_core) for _printf_core
    printf8.o(i.__0sprintf$8) refers to printf8.o(i._sputc) for _sputc
    printf8.o(i.__0vfprintf$8) refers to printf8.o(i._printf_core) for _printf_core
    printf8.o(i.__0vfprintf$8) refers to fputc.o(i.fputc) for fputc
    printf8.o(i.__0vprintf$8) refers to printf8.o(i._printf_core) for _printf_core
    printf8.o(i.__0vprintf$8) refers to fputc.o(i.fputc) for fputc
    printf8.o(i.__0vprintf$8) refers to stdout.o(.data) for __stdout
    printf8.o(i.__0vsnprintf$8) refers to printf8.o(i._printf_core) for _printf_core
    printf8.o(i.__0vsnprintf$8) refers to printf8.o(i._snputc) for _snputc
    printf8.o(i.__0vsprintf$8) refers to printf8.o(i._printf_core) for _printf_core
    printf8.o(i.__0vsprintf$8) refers to printf8.o(i._sputc) for _sputc
    printf8.o(i._printf_core) refers to printf8.o(i._printf_pre_padding) for _printf_pre_padding
    printf8.o(i._printf_core) refers to uldiv.o(.text) for __aeabi_uldivmod
    printf8.o(i._printf_core) refers to printf8.o(i._printf_post_padding) for _printf_post_padding
    printfa.o(i.__0fprintf) refers (Special) to iusefp.o(.text) for __I$use$fp
    printfa.o(i.__0fprintf) refers to printfa.o(i._printf_core) for _printf_core
    printfa.o(i.__0fprintf) refers to fputc.o(i.fputc) for fputc
    printfa.o(i.__0printf) refers (Special) to iusefp.o(.text) for __I$use$fp
    printfa.o(i.__0printf) refers to printfa.o(i._printf_core) for _printf_core
    printfa.o(i.__0printf) refers to fputc.o(i.fputc) for fputc
    printfa.o(i.__0printf) refers to stdout.o(.data) for __stdout
    printfa.o(i.__0snprintf) refers (Special) to iusefp.o(.text) for __I$use$fp
    printfa.o(i.__0snprintf) refers to printfa.o(i._printf_core) for _printf_core
    printfa.o(i.__0snprintf) refers to printfa.o(i._snputc) for _snputc
    printfa.o(i.__0sprintf) refers (Special) to iusefp.o(.text) for __I$use$fp
    printfa.o(i.__0sprintf) refers to printfa.o(i._printf_core) for _printf_core
    printfa.o(i.__0sprintf) refers to printfa.o(i._sputc) for _sputc
    printfa.o(i.__0vfprintf) refers (Special) to iusefp.o(.text) for __I$use$fp
    printfa.o(i.__0vfprintf) refers to printfa.o(i._printf_core) for _printf_core
    printfa.o(i.__0vfprintf) refers to fputc.o(i.fputc) for fputc
    printfa.o(i.__0vprintf) refers (Special) to iusefp.o(.text) for __I$use$fp
    printfa.o(i.__0vprintf) refers to printfa.o(i._printf_core) for _printf_core
    printfa.o(i.__0vprintf) refers to fputc.o(i.fputc) for fputc
    printfa.o(i.__0vprintf) refers to stdout.o(.data) for __stdout
    printfa.o(i.__0vsnprintf) refers (Special) to iusefp.o(.text) for __I$use$fp
    printfa.o(i.__0vsnprintf) refers to printfa.o(i._printf_core) for _printf_core
    printfa.o(i.__0vsnprintf) refers to printfa.o(i._snputc) for _snputc
    printfa.o(i.__0vsprintf) refers (Special) to iusefp.o(.text) for __I$use$fp
    printfa.o(i.__0vsprintf) refers to printfa.o(i._printf_core) for _printf_core
    printfa.o(i.__0vsprintf) refers to printfa.o(i._sputc) for _sputc
    printfa.o(i._fp_digits) refers (Special) to iusefp.o(.text) for __I$use$fp
    printfa.o(i._fp_digits) refers to dmul.o(.text) for __aeabi_dmul
    printfa.o(i._fp_digits) refers to ddiv.o(.text) for __aeabi_ddiv
    printfa.o(i._fp_digits) refers to cdrcmple.o(.text) for __aeabi_cdrcmple
    printfa.o(i._fp_digits) refers to dadd.o(.text) for __aeabi_dadd
    printfa.o(i._fp_digits) refers to dfixul.o(.text) for __aeabi_d2ulz
    printfa.o(i._fp_digits) refers to uldiv.o(.text) for __aeabi_uldivmod
    printfa.o(i._printf_core) refers (Special) to iusefp.o(.text) for __I$use$fp
    printfa.o(i._printf_core) refers to printfa.o(i._printf_pre_padding) for _printf_pre_padding
    printfa.o(i._printf_core) refers to uldiv.o(.text) for __aeabi_uldivmod
    printfa.o(i._printf_core) refers to printfa.o(i._printf_post_padding) for _printf_post_padding
    printfa.o(i._printf_core) refers to printfa.o(i._fp_digits) for _fp_digits
    printfa.o(i._printf_core) refers to uidiv.o(.text) for __aeabi_uidivmod
    printfa.o(i._printf_post_padding) refers (Special) to iusefp.o(.text) for __I$use$fp
    printfa.o(i._printf_pre_padding) refers (Special) to iusefp.o(.text) for __I$use$fp
    printfa.o(i._snputc) refers (Special) to iusefp.o(.text) for __I$use$fp
    printfa.o(i._sputc) refers (Special) to iusefp.o(.text) for __I$use$fp
    malloc.o(i.free) refers to mvars.o(.data) for __microlib_freelist
    malloc.o(i.malloc) refers to mvars.o(.data) for __microlib_freelist_initialised
    malloc.o(i.malloc) refers to mvars.o(.data) for __microlib_freelist
    malloc.o(i.malloc) refers to startup_stm32f10x_md.o(HEAP) for __heap_base
    mallocr.o(i.__free$realloc) refers to mvars.o(.data) for __microlib_freelist
    mallocr.o(i.__malloc$realloc) refers to mallocr.o(i.internal_alloc) for internal_alloc
    mallocr.o(i.__malloc$realloc) refers to mvars.o(.data) for __microlib_freelist_initialised
    mallocr.o(i.__malloc$realloc) refers to startup_stm32f10x_md.o(HEAP) for __heap_base
    mallocr.o(i.__malloc$realloc) refers to mvars.o(.data) for __microlib_freelist
    mallocr.o(i.internal_alloc) refers to memmovea.o(.text) for __aeabi_memcpy
    mallocr.o(i.internal_alloc) refers to mvars.o(.data) for __microlib_freelist
    mallocr.o(i.realloc) refers to mallocr.o(i.__free$realloc) for __free$realloc
    mallocr.o(i.realloc) refers to mallocr.o(i.internal_alloc) for internal_alloc
    mallocr.o(i.realloc) refers to mallocr.o(i.__malloc$realloc) for __malloc$realloc
    mallocr.o(i.realloc) refers to mvars.o(.data) for __microlib_freelist
    malloca.o(i.__aligned_malloc) refers to mvars.o(.data) for __microlib_freelist_initialised
    malloca.o(i.__aligned_malloc) refers to mvars.o(.data) for __microlib_freelist
    malloca.o(i.__aligned_malloc) refers to startup_stm32f10x_md.o(HEAP) for __heap_base
    malloca.o(i.__free$memalign) refers to mvars.o(.data) for __microlib_freelist
    malloca.o(i.__malloc$memalign) refers to malloca.o(i.__aligned_malloc) for __aligned_malloc
    mallocra.o(i.__aligned_malloc$realloc) refers to mallocra.o(i.internal_alloc) for internal_alloc
    mallocra.o(i.__aligned_malloc$realloc) refers to mvars.o(.data) for __microlib_freelist_initialised
    mallocra.o(i.__aligned_malloc$realloc) refers to startup_stm32f10x_md.o(HEAP) for __heap_base
    mallocra.o(i.__aligned_malloc$realloc) refers to mvars.o(.data) for __microlib_freelist
    mallocra.o(i.__free$realloc$memalign) refers to mvars.o(.data) for __microlib_freelist
    mallocra.o(i.__malloc$realloc$memalign) refers to mallocra.o(i.__aligned_malloc$realloc) for __aligned_malloc$realloc
    mallocra.o(i.__realloc$memalign) refers to mallocra.o(i.__free$realloc$memalign) for __free$realloc$memalign
    mallocra.o(i.__realloc$memalign) refers to mallocra.o(i.internal_alloc) for internal_alloc
    mallocra.o(i.__realloc$memalign) refers to mallocra.o(i.__malloc$realloc$memalign) for __malloc$realloc$memalign
    mallocra.o(i.__realloc$memalign) refers to mvars.o(.data) for __microlib_freelist
    mallocra.o(i.internal_alloc) refers to memmovea.o(.text) for __aeabi_memcpy
    mallocra.o(i.internal_alloc) refers to mvars.o(.data) for __microlib_freelist
    errno.o(i.__aeabi_errno_addr) refers to errno.o(.data) for .data
    errno.o(i.__read_errno) refers to errno.o(.data) for .data
    errno.o(i.__set_errno) refers to errno.o(.data) for .data
    strtoll.o(.text) refers to __strtoll.o(.text) for __strtoll
    fadd.o(.text) refers (Special) to iusefp.o(.text) for __I$use$fp
    fadd.o(.text) refers to fepilogue.o(.text) for _float_epilogue
    fmul.o(.text) refers (Special) to iusefp.o(.text) for __I$use$fp
    fdiv.o(.text) refers (Special) to iusefp.o(.text) for __I$use$fp
    fdiv.o(.text) refers to fepilogue.o(.text) for _float_round
    dadd.o(.text) refers (Special) to iusefp.o(.text) for __I$use$fp
    dadd.o(.text) refers to llshl.o(.text) for __aeabi_llsl
    dadd.o(.text) refers to llsshr.o(.text) for __aeabi_lasr
    dadd.o(.text) refers to depilogue.o(.text) for _double_epilogue
    dmul.o(.text) refers (Special) to iusefp.o(.text) for __I$use$fp
    dmul.o(.text) refers to depilogue.o(.text) for _double_epilogue
    ddiv.o(.text) refers (Special) to iusefp.o(.text) for __I$use$fp
    ddiv.o(.text) refers to depilogue.o(.text) for _double_round
    fflti.o(.text) refers (Special) to iusefp.o(.text) for __I$use$fp
    fflti.o(.text) refers to fepilogue.o(.text) for _float_epilogue
    ffltui.o(.text) refers (Special) to iusefp.o(.text) for __I$use$fp
    ffltui.o(.text) refers to fepilogue.o(.text) for _float_epilogue
    dfltui.o(.text) refers (Special) to iusefp.o(.text) for __I$use$fp
    dfltui.o(.text) refers to depilogue.o(.text) for _double_epilogue
    dfltl.o(.text) refers (Special) to iusefp.o(.text) for __I$use$fp
    dfltl.o(.text) refers to depilogue.o(.text) for _double_epilogue
    ffixui.o(.text) refers (Special) to iusefp.o(.text) for __I$use$fp
    dfixui.o(.text) refers (Special) to iusefp.o(.text) for __I$use$fp
    dfixui.o(.text) refers to llushr.o(.text) for __aeabi_llsr
    f2d.o(.text) refers (Special) to iusefp.o(.text) for __I$use$fp
    cdcmple.o(.text) refers (Special) to iusefp.o(.text) for __I$use$fp
    cdrcmple.o(.text) refers (Special) to iusefp.o(.text) for __I$use$fp
    d2f.o(.text) refers (Special) to iusefp.o(.text) for __I$use$fp
    d2f.o(.text) refers to fepilogue.o(.text) for _float_round
    cfcmple.o(.text) refers (Special) to iusefp.o(.text) for __I$use$fp
    cfrcmple.o(.text) refers (Special) to iusefp.o(.text) for __I$use$fp
    entry2.o(.ARM.Collect$$$$00000001) refers to entry2.o(.ARM.Collect$$$$00002712) for __lit__00000000
    entry2.o(.ARM.Collect$$$$00002712) refers to startup_stm32f10x_md.o(STACK) for __initial_sp
    entry2.o(__vectab_stack_and_reset_area) refers to startup_stm32f10x_md.o(STACK) for __initial_sp
    entry2.o(__vectab_stack_and_reset_area) refers to entry.o(.ARM.Collect$$$$00000000) for __main
    entry5.o(.ARM.Collect$$$$00000004) refers to init.o(.text) for __scatterload
    entry9a.o(.ARM.Collect$$$$0000000B) refers to main.o(i.main) for main
    entry9b.o(.ARM.Collect$$$$0000000C) refers to main.o(i.main) for main
    fputc.o(i.fputc) refers (Special) to iusesemip.o(.text) for __I$use$semihosting$fputc
    fputc.o(i.fputc) refers (Special) to semi.o(.text) for __semihosting_library_function
    uldiv.o(.text) refers to llushr.o(.text) for __aeabi_llsr
    uldiv.o(.text) refers to llshl.o(.text) for __aeabi_llsl
    localtime_w.o(.text) refers to localtime_i.o(.text) for _localtime
    localtime_w.o(.text) refers to localtime_w.o(.bss) for .bss
    localtime_i.o(.text) refers to localtime_i.o(.constdata) for .constdata
    strtod.o(.text) refers to scanf_fp.o(.text) for _scanf_real
    strtod.o(.text) refers to _sgetc.o(.text) for _sgetc
    strtod.o(.text) refers to isspace_o.o(.text) for isspace
    __strtoll.o(.text) refers to ctype_o.o(.text) for __rt_ctype_table
    __strtoll.o(.text) refers to _strtoull.o(.text) for _strtoull
    __strtoll.o(.text) refers to errno.o(i.__aeabi_errno_addr) for __aeabi_errno_addr
    depilogue.o(.text) refers to llshl.o(.text) for __aeabi_llsl
    depilogue.o(.text) refers to llushr.o(.text) for __aeabi_llsr
    dfixul.o(.text) refers to llushr.o(.text) for __aeabi_llsr
    dfixul.o(.text) refers to llshl.o(.text) for __aeabi_llsl
    init.o(.text) refers to entry5.o(.ARM.Collect$$$$00000004) for __main_after_scatterload
    isspace_c.o(.text) refers to ctype_c.o(.text) for __ctype_lookup
    ctype_o.o(.text) refers to ctype_o.o(.constdata) for .constdata
    ctype_o.o(.constdata) refers to ctype_o.o(.constdata) for __ctype_table
    isalnum_o.o(.text) refers to ctype_o.o(.text) for __rt_ctype_table
    isalpha_o.o(.text) refers to ctype_o.o(.text) for __rt_ctype_table
    isblank_o.o(.text) refers to ctype_o.o(.constdata) for __ctype_table
    iscntrl_o.o(.text) refers to ctype_o.o(.text) for __rt_ctype_table
    isdigit_o.o(.text) refers to ctype_o.o(.text) for __rt_ctype_table
    isgraph_o.o(.text) refers to ctype_o.o(.text) for __rt_ctype_table
    islower_o.o(.text) refers to ctype_o.o(.text) for __rt_ctype_table
    isprint_o.o(.text) refers to ctype_o.o(.text) for __rt_ctype_table
    ispunct_o.o(.text) refers to ctype_o.o(.text) for __rt_ctype_table
    isspace_o.o(.text) refers to ctype_o.o(.text) for __rt_ctype_table
    isupper_o.o(.text) refers to ctype_o.o(.text) for __rt_ctype_table
    isxdigit_o.o(.text) refers to ctype_o.o(.text) for __rt_ctype_table
    scanf_fp.o(.text) refers (Special) to iusefp.o(.text) for __I$use$fp
    scanf_fp.o(.text) refers to dfltul.o(.text) for __aeabi_ul2d
    scanf_fp.o(.text) refers to dmul.o(.text) for __aeabi_dmul
    scanf_fp.o(.text) refers to ddiv.o(.text) for __aeabi_ddiv
    scanf_fp.o(.text) refers to scanf_fp.o(i._is_digit) for _is_digit
    scanf_fp.o(.text) refers to d2f.o(.text) for __aeabi_d2f
    _strtoull.o(.text) refers to _chval.o(.text) for _chval
    _strtoull.o(.text) refers to errno.o(i.__aeabi_errno_addr) for __aeabi_errno_addr
    ctype_c.o(.text) refers to ctype_c.o(.constdata) for .constdata
    dfltul.o(.text) refers to depilogue.o(.text) for _double_epilogue
    scanf_fp.o(i._is_digit) refers (Special) to iusefp.o(.text) for __I$use$fp


==============================================================================

Removing Unused input sections from the image.

    Removing core_cm3.o(.emb_text), (32 bytes).
    Removing system_stm32f10x.o(i.SystemCoreClockUpdate), (164 bytes).
    Removing system_stm32f10x.o(.data), (20 bytes).
    Removing misc.o(i.NVIC_Init), (112 bytes).
    Removing misc.o(i.NVIC_PriorityGroupConfig), (20 bytes).
    Removing misc.o(i.NVIC_SetVectorTable), (20 bytes).
    Removing misc.o(i.NVIC_SystemLPConfig), (32 bytes).
    Removing misc.o(i.SysTick_CLKSourceConfig), (40 bytes).
    Removing stm32f10x_adc.o(i.ADC_AnalogWatchdogCmd), (20 bytes).
    Removing stm32f10x_adc.o(i.ADC_AnalogWatchdogSingleChannelConfig), (16 bytes).
    Removing stm32f10x_adc.o(i.ADC_AnalogWatchdogThresholdsConfig), (6 bytes).
    Removing stm32f10x_adc.o(i.ADC_AutoInjectedConvCmd), (22 bytes).
    Removing stm32f10x_adc.o(i.ADC_ClearFlag), (6 bytes).
    Removing stm32f10x_adc.o(i.ADC_ClearITPendingBit), (10 bytes).
    Removing stm32f10x_adc.o(i.ADC_Cmd), (22 bytes).
    Removing stm32f10x_adc.o(i.ADC_DMACmd), (22 bytes).
    Removing stm32f10x_adc.o(i.ADC_DeInit), (92 bytes).
    Removing stm32f10x_adc.o(i.ADC_DiscModeChannelCountConfig), (24 bytes).
    Removing stm32f10x_adc.o(i.ADC_DiscModeCmd), (22 bytes).
    Removing stm32f10x_adc.o(i.ADC_ExternalTrigConvCmd), (22 bytes).
    Removing stm32f10x_adc.o(i.ADC_ExternalTrigInjectedConvCmd), (22 bytes).
    Removing stm32f10x_adc.o(i.ADC_ExternalTrigInjectedConvConfig), (16 bytes).
    Removing stm32f10x_adc.o(i.ADC_GetCalibrationStatus), (20 bytes).
    Removing stm32f10x_adc.o(i.ADC_GetConversionValue), (8 bytes).
    Removing stm32f10x_adc.o(i.ADC_GetDualModeConversionValue), (12 bytes).
    Removing stm32f10x_adc.o(i.ADC_GetFlagStatus), (18 bytes).
    Removing stm32f10x_adc.o(i.ADC_GetITStatus), (36 bytes).
    Removing stm32f10x_adc.o(i.ADC_GetInjectedConversionValue), (28 bytes).
    Removing stm32f10x_adc.o(i.ADC_GetResetCalibrationStatus), (20 bytes).
    Removing stm32f10x_adc.o(i.ADC_GetSoftwareStartConvStatus), (20 bytes).
    Removing stm32f10x_adc.o(i.ADC_GetSoftwareStartInjectedConvCmdStatus), (20 bytes).
    Removing stm32f10x_adc.o(i.ADC_ITConfig), (24 bytes).
    Removing stm32f10x_adc.o(i.ADC_Init), (80 bytes).
    Removing stm32f10x_adc.o(i.ADC_InjectedChannelConfig), (130 bytes).
    Removing stm32f10x_adc.o(i.ADC_InjectedDiscModeCmd), (22 bytes).
    Removing stm32f10x_adc.o(i.ADC_InjectedSequencerLengthConfig), (24 bytes).
    Removing stm32f10x_adc.o(i.ADC_RegularChannelConfig), (184 bytes).
    Removing stm32f10x_adc.o(i.ADC_ResetCalibration), (10 bytes).
    Removing stm32f10x_adc.o(i.ADC_SetInjectedOffset), (20 bytes).
    Removing stm32f10x_adc.o(i.ADC_SoftwareStartConvCmd), (22 bytes).
    Removing stm32f10x_adc.o(i.ADC_SoftwareStartInjectedConvCmd), (22 bytes).
    Removing stm32f10x_adc.o(i.ADC_StartCalibration), (10 bytes).
    Removing stm32f10x_adc.o(i.ADC_StructInit), (18 bytes).
    Removing stm32f10x_adc.o(i.ADC_TempSensorVrefintCmd), (36 bytes).
    Removing stm32f10x_bkp.o(i.BKP_ClearFlag), (20 bytes).
    Removing stm32f10x_bkp.o(i.BKP_ClearITPendingBit), (20 bytes).
    Removing stm32f10x_bkp.o(i.BKP_DeInit), (16 bytes).
    Removing stm32f10x_bkp.o(i.BKP_GetFlagStatus), (12 bytes).
    Removing stm32f10x_bkp.o(i.BKP_GetITStatus), (12 bytes).
    Removing stm32f10x_bkp.o(i.BKP_ITConfig), (12 bytes).
    Removing stm32f10x_bkp.o(i.BKP_RTCOutputConfig), (28 bytes).
    Removing stm32f10x_bkp.o(i.BKP_SetRTCCalibrationValue), (28 bytes).
    Removing stm32f10x_bkp.o(i.BKP_TamperPinCmd), (12 bytes).
    Removing stm32f10x_bkp.o(i.BKP_TamperPinLevelConfig), (12 bytes).
    Removing stm32f10x_can.o(i.CAN_CancelTransmit), (48 bytes).
    Removing stm32f10x_can.o(i.CAN_ClearFlag), (56 bytes).
    Removing stm32f10x_can.o(i.CAN_ClearITPendingBit), (168 bytes).
    Removing stm32f10x_can.o(i.CAN_DBGFreeze), (22 bytes).
    Removing stm32f10x_can.o(i.CAN_DeInit), (56 bytes).
    Removing stm32f10x_can.o(i.CAN_FIFORelease), (22 bytes).
    Removing stm32f10x_can.o(i.CAN_FilterInit), (264 bytes).
    Removing stm32f10x_can.o(i.CAN_GetFlagStatus), (120 bytes).
    Removing stm32f10x_can.o(i.CAN_GetITStatus), (288 bytes).
    Removing stm32f10x_can.o(i.CAN_GetLSBTransmitErrorCounter), (12 bytes).
    Removing stm32f10x_can.o(i.CAN_GetLastErrorCode), (12 bytes).
    Removing stm32f10x_can.o(i.CAN_GetReceiveErrorCounter), (10 bytes).
    Removing stm32f10x_can.o(i.CAN_ITConfig), (18 bytes).
    Removing stm32f10x_can.o(i.CAN_Init), (276 bytes).
    Removing stm32f10x_can.o(i.CAN_MessagePending), (30 bytes).
    Removing stm32f10x_can.o(i.CAN_OperatingModeRequest), (162 bytes).
    Removing stm32f10x_can.o(i.CAN_Receive), (240 bytes).
    Removing stm32f10x_can.o(i.CAN_SlaveStartBank), (52 bytes).
    Removing stm32f10x_can.o(i.CAN_Sleep), (30 bytes).
    Removing stm32f10x_can.o(i.CAN_StructInit), (32 bytes).
    Removing stm32f10x_can.o(i.CAN_TTComModeCmd), (118 bytes).
    Removing stm32f10x_can.o(i.CAN_Transmit), (294 bytes).
    Removing stm32f10x_can.o(i.CAN_TransmitStatus), (160 bytes).
    Removing stm32f10x_can.o(i.CAN_WakeUp), (48 bytes).
    Removing stm32f10x_can.o(i.CheckITStatus), (18 bytes).
    Removing stm32f10x_cec.o(i.CEC_ClearFlag), (36 bytes).
    Removing stm32f10x_cec.o(i.CEC_ClearITPendingBit), (36 bytes).
    Removing stm32f10x_cec.o(i.CEC_Cmd), (32 bytes).
    Removing stm32f10x_cec.o(i.CEC_DeInit), (22 bytes).
    Removing stm32f10x_cec.o(i.CEC_EndOfMessageCmd), (12 bytes).
    Removing stm32f10x_cec.o(i.CEC_GetFlagStatus), (48 bytes).
    Removing stm32f10x_cec.o(i.CEC_GetITStatus), (40 bytes).
    Removing stm32f10x_cec.o(i.CEC_ITConfig), (12 bytes).
    Removing stm32f10x_cec.o(i.CEC_Init), (32 bytes).
    Removing stm32f10x_cec.o(i.CEC_OwnAddressConfig), (12 bytes).
    Removing stm32f10x_cec.o(i.CEC_ReceiveDataByte), (12 bytes).
    Removing stm32f10x_cec.o(i.CEC_SendDataByte), (12 bytes).
    Removing stm32f10x_cec.o(i.CEC_SetPrescaler), (12 bytes).
    Removing stm32f10x_cec.o(i.CEC_StartOfMessage), (12 bytes).
    Removing stm32f10x_crc.o(i.CRC_CalcBlockCRC), (36 bytes).
    Removing stm32f10x_crc.o(i.CRC_CalcCRC), (16 bytes).
    Removing stm32f10x_crc.o(i.CRC_GetCRC), (12 bytes).
    Removing stm32f10x_crc.o(i.CRC_GetIDRegister), (12 bytes).
    Removing stm32f10x_crc.o(i.CRC_ResetDR), (12 bytes).
    Removing stm32f10x_crc.o(i.CRC_SetIDRegister), (12 bytes).
    Removing stm32f10x_dac.o(i.DAC_Cmd), (40 bytes).
    Removing stm32f10x_dac.o(i.DAC_DMACmd), (44 bytes).
    Removing stm32f10x_dac.o(i.DAC_DeInit), (22 bytes).
    Removing stm32f10x_dac.o(i.DAC_DualSoftwareTriggerCmd), (36 bytes).
    Removing stm32f10x_dac.o(i.DAC_GetDataOutputValue), (36 bytes).
    Removing stm32f10x_dac.o(i.DAC_Init), (52 bytes).
    Removing stm32f10x_dac.o(i.DAC_SetChannel1Data), (32 bytes).
    Removing stm32f10x_dac.o(i.DAC_SetChannel2Data), (32 bytes).
    Removing stm32f10x_dac.o(i.DAC_SetDualChannelData), (36 bytes).
    Removing stm32f10x_dac.o(i.DAC_SoftwareTriggerCmd), (44 bytes).
    Removing stm32f10x_dac.o(i.DAC_StructInit), (12 bytes).
    Removing stm32f10x_dac.o(i.DAC_WaveGenerationCmd), (40 bytes).
    Removing stm32f10x_dbgmcu.o(i.DBGMCU_Config), (32 bytes).
    Removing stm32f10x_dbgmcu.o(i.DBGMCU_GetDEVID), (16 bytes).
    Removing stm32f10x_dbgmcu.o(i.DBGMCU_GetREVID), (12 bytes).
    Removing stm32f10x_dma.o(i.DMA_ClearFlag), (28 bytes).
    Removing stm32f10x_dma.o(i.DMA_ClearITPendingBit), (28 bytes).
    Removing stm32f10x_dma.o(i.DMA_Cmd), (24 bytes).
    Removing stm32f10x_dma.o(i.DMA_DeInit), (332 bytes).
    Removing stm32f10x_dma.o(i.DMA_GetCurrDataCounter), (8 bytes).
    Removing stm32f10x_dma.o(i.DMA_GetFlagStatus), (44 bytes).
    Removing stm32f10x_dma.o(i.DMA_GetITStatus), (44 bytes).
    Removing stm32f10x_dma.o(i.DMA_ITConfig), (18 bytes).
    Removing stm32f10x_dma.o(i.DMA_Init), (60 bytes).
    Removing stm32f10x_dma.o(i.DMA_SetCurrDataCounter), (4 bytes).
    Removing stm32f10x_dma.o(i.DMA_StructInit), (26 bytes).
    Removing stm32f10x_exti.o(i.EXTI_ClearFlag), (12 bytes).
    Removing stm32f10x_exti.o(i.EXTI_ClearITPendingBit), (12 bytes).
    Removing stm32f10x_exti.o(i.EXTI_DeInit), (36 bytes).
    Removing stm32f10x_exti.o(i.EXTI_GenerateSWInterrupt), (16 bytes).
    Removing stm32f10x_exti.o(i.EXTI_GetFlagStatus), (24 bytes).
    Removing stm32f10x_exti.o(i.EXTI_GetITStatus), (40 bytes).
    Removing stm32f10x_exti.o(i.EXTI_Init), (148 bytes).
    Removing stm32f10x_exti.o(i.EXTI_StructInit), (16 bytes).
    Removing stm32f10x_flash.o(i.FLASH_ClearFlag), (12 bytes).
    Removing stm32f10x_flash.o(i.FLASH_EnableWriteProtection), (196 bytes).
    Removing stm32f10x_flash.o(i.FLASH_EraseAllBank1Pages), (72 bytes).
    Removing stm32f10x_flash.o(i.FLASH_EraseAllPages), (72 bytes).
    Removing stm32f10x_flash.o(i.FLASH_EraseOptionBytes), (168 bytes).
    Removing stm32f10x_flash.o(i.FLASH_ErasePage), (76 bytes).
    Removing stm32f10x_flash.o(i.FLASH_GetBank1Status), (52 bytes).
    Removing stm32f10x_flash.o(i.FLASH_GetFlagStatus), (48 bytes).
    Removing stm32f10x_flash.o(i.FLASH_GetPrefetchBufferStatus), (24 bytes).
    Removing stm32f10x_flash.o(i.FLASH_GetReadOutProtectionStatus), (24 bytes).
    Removing stm32f10x_flash.o(i.FLASH_GetStatus), (52 bytes).
    Removing stm32f10x_flash.o(i.FLASH_GetUserOptionByte), (12 bytes).
    Removing stm32f10x_flash.o(i.FLASH_GetWriteProtectionOptionByte), (12 bytes).
    Removing stm32f10x_flash.o(i.FLASH_HalfCycleAccessCmd), (28 bytes).
    Removing stm32f10x_flash.o(i.FLASH_ITConfig), (32 bytes).
    Removing stm32f10x_flash.o(i.FLASH_Lock), (20 bytes).
    Removing stm32f10x_flash.o(i.FLASH_LockBank1), (20 bytes).
    Removing stm32f10x_flash.o(i.FLASH_PrefetchBufferCmd), (28 bytes).
    Removing stm32f10x_flash.o(i.FLASH_ProgramHalfWord), (64 bytes).
    Removing stm32f10x_flash.o(i.FLASH_ProgramOptionByteData), (84 bytes).
    Removing stm32f10x_flash.o(i.FLASH_ProgramWord), (108 bytes).
    Removing stm32f10x_flash.o(i.FLASH_ReadOutProtection), (172 bytes).
    Removing stm32f10x_flash.o(i.FLASH_SetLatency), (24 bytes).
    Removing stm32f10x_flash.o(i.FLASH_Unlock), (24 bytes).
    Removing stm32f10x_flash.o(i.FLASH_UnlockBank1), (24 bytes).
    Removing stm32f10x_flash.o(i.FLASH_UserOptionByteConfig), (104 bytes).
    Removing stm32f10x_flash.o(i.FLASH_WaitForLastBank1Operation), (38 bytes).
    Removing stm32f10x_flash.o(i.FLASH_WaitForLastOperation), (38 bytes).
    Removing stm32f10x_fsmc.o(i.FSMC_ClearFlag), (64 bytes).
    Removing stm32f10x_fsmc.o(i.FSMC_ClearITPendingBit), (72 bytes).
    Removing stm32f10x_fsmc.o(i.FSMC_GetECC), (28 bytes).
    Removing stm32f10x_fsmc.o(i.FSMC_GetFlagStatus), (56 bytes).
    Removing stm32f10x_fsmc.o(i.FSMC_GetITStatus), (68 bytes).
    Removing stm32f10x_fsmc.o(i.FSMC_ITConfig), (128 bytes).
    Removing stm32f10x_fsmc.o(i.FSMC_NANDCmd), (92 bytes).
    Removing stm32f10x_fsmc.o(i.FSMC_NANDDeInit), (68 bytes).
    Removing stm32f10x_fsmc.o(i.FSMC_NANDECCCmd), (92 bytes).
    Removing stm32f10x_fsmc.o(i.FSMC_NANDInit), (136 bytes).
    Removing stm32f10x_fsmc.o(i.FSMC_NANDStructInit), (54 bytes).
    Removing stm32f10x_fsmc.o(i.FSMC_NORSRAMCmd), (52 bytes).
    Removing stm32f10x_fsmc.o(i.FSMC_NORSRAMDeInit), (54 bytes).
    Removing stm32f10x_fsmc.o(i.FSMC_NORSRAMInit), (230 bytes).
    Removing stm32f10x_fsmc.o(i.FSMC_NORSRAMStructInit), (114 bytes).
    Removing stm32f10x_fsmc.o(i.FSMC_PCCARDCmd), (48 bytes).
    Removing stm32f10x_fsmc.o(i.FSMC_PCCARDDeInit), (40 bytes).
    Removing stm32f10x_fsmc.o(i.FSMC_PCCARDInit), (132 bytes).
    Removing stm32f10x_fsmc.o(i.FSMC_PCCARDStructInit), (60 bytes).
    Removing stm32f10x_gpio.o(i.GPIO_AFIODeInit), (20 bytes).
    Removing stm32f10x_gpio.o(i.GPIO_DeInit), (200 bytes).
    Removing stm32f10x_gpio.o(i.GPIO_ETH_MediaInterfaceConfig), (12 bytes).
    Removing stm32f10x_gpio.o(i.GPIO_EXTILineConfig), (64 bytes).
    Removing stm32f10x_gpio.o(i.GPIO_EventOutputCmd), (12 bytes).
    Removing stm32f10x_gpio.o(i.GPIO_EventOutputConfig), (32 bytes).
    Removing stm32f10x_gpio.o(i.GPIO_PinLockConfig), (18 bytes).
    Removing stm32f10x_gpio.o(i.GPIO_PinRemapConfig), (144 bytes).
    Removing stm32f10x_gpio.o(i.GPIO_ReadInputData), (8 bytes).
    Removing stm32f10x_gpio.o(i.GPIO_ReadInputDataBit), (18 bytes).
    Removing stm32f10x_gpio.o(i.GPIO_ReadOutputData), (8 bytes).
    Removing stm32f10x_gpio.o(i.GPIO_ReadOutputDataBit), (18 bytes).
    Removing stm32f10x_gpio.o(i.GPIO_StructInit), (16 bytes).
    Removing stm32f10x_i2c.o(i.I2C_ARPCmd), (24 bytes).
    Removing stm32f10x_i2c.o(i.I2C_AcknowledgeConfig), (24 bytes).
    Removing stm32f10x_i2c.o(i.I2C_CalculatePEC), (24 bytes).
    Removing stm32f10x_i2c.o(i.I2C_CheckEvent), (42 bytes).
    Removing stm32f10x_i2c.o(i.I2C_ClearFlag), (12 bytes).
    Removing stm32f10x_i2c.o(i.I2C_ClearITPendingBit), (12 bytes).
    Removing stm32f10x_i2c.o(i.I2C_Cmd), (24 bytes).
    Removing stm32f10x_i2c.o(i.I2C_DMACmd), (24 bytes).
    Removing stm32f10x_i2c.o(i.I2C_DMALastTransferCmd), (24 bytes).
    Removing stm32f10x_i2c.o(i.I2C_DeInit), (56 bytes).
    Removing stm32f10x_i2c.o(i.I2C_DualAddressCmd), (24 bytes).
    Removing stm32f10x_i2c.o(i.I2C_FastModeDutyCycleConfig), (28 bytes).
    Removing stm32f10x_i2c.o(i.I2C_GeneralCallCmd), (24 bytes).
    Removing stm32f10x_i2c.o(i.I2C_GenerateSTART), (24 bytes).
    Removing stm32f10x_i2c.o(i.I2C_GenerateSTOP), (24 bytes).
    Removing stm32f10x_i2c.o(i.I2C_GetFlagStatus), (58 bytes).
    Removing stm32f10x_i2c.o(i.I2C_GetITStatus), (38 bytes).
    Removing stm32f10x_i2c.o(i.I2C_GetLastEvent), (26 bytes).
    Removing stm32f10x_i2c.o(i.I2C_GetPEC), (8 bytes).
    Removing stm32f10x_i2c.o(i.I2C_ITConfig), (18 bytes).
    Removing stm32f10x_i2c.o(i.I2C_Init), (236 bytes).
    Removing stm32f10x_i2c.o(i.I2C_NACKPositionConfig), (28 bytes).
    Removing stm32f10x_i2c.o(i.I2C_OwnAddress2Config), (22 bytes).
    Removing stm32f10x_i2c.o(i.I2C_PECPositionConfig), (28 bytes).
    Removing stm32f10x_i2c.o(i.I2C_ReadRegister), (22 bytes).
    Removing stm32f10x_i2c.o(i.I2C_ReceiveData), (8 bytes).
    Removing stm32f10x_i2c.o(i.I2C_SMBusAlertConfig), (28 bytes).
    Removing stm32f10x_i2c.o(i.I2C_Send7bitAddress), (18 bytes).
    Removing stm32f10x_i2c.o(i.I2C_SendData), (4 bytes).
    Removing stm32f10x_i2c.o(i.I2C_SoftwareResetCmd), (22 bytes).
    Removing stm32f10x_i2c.o(i.I2C_StretchClockCmd), (24 bytes).
    Removing stm32f10x_i2c.o(i.I2C_StructInit), (30 bytes).
    Removing stm32f10x_i2c.o(i.I2C_TransmitPEC), (24 bytes).
    Removing stm32f10x_iwdg.o(i.IWDG_Enable), (16 bytes).
    Removing stm32f10x_iwdg.o(i.IWDG_GetFlagStatus), (24 bytes).
    Removing stm32f10x_iwdg.o(i.IWDG_ReloadCounter), (16 bytes).
    Removing stm32f10x_iwdg.o(i.IWDG_SetPrescaler), (12 bytes).
    Removing stm32f10x_iwdg.o(i.IWDG_SetReload), (12 bytes).
    Removing stm32f10x_iwdg.o(i.IWDG_WriteAccessCmd), (12 bytes).
    Removing stm32f10x_pwr.o(i.PWR_ClearFlag), (20 bytes).
    Removing stm32f10x_pwr.o(i.PWR_DeInit), (22 bytes).
    Removing stm32f10x_pwr.o(i.PWR_EnterSTANDBYMode), (52 bytes).
    Removing stm32f10x_pwr.o(i.PWR_EnterSTOPMode), (64 bytes).
    Removing stm32f10x_pwr.o(i.PWR_GetFlagStatus), (24 bytes).
    Removing stm32f10x_pwr.o(i.PWR_PVDCmd), (12 bytes).
    Removing stm32f10x_pwr.o(i.PWR_PVDLevelConfig), (24 bytes).
    Removing stm32f10x_pwr.o(i.PWR_WakeUpPinCmd), (12 bytes).
    Removing stm32f10x_rcc.o(i.RCC_ADCCLKConfig), (24 bytes).
    Removing stm32f10x_rcc.o(i.RCC_AHBPeriphClockCmd), (32 bytes).
    Removing stm32f10x_rcc.o(i.RCC_APB1PeriphResetCmd), (32 bytes).
    Removing stm32f10x_rcc.o(i.RCC_APB2PeriphResetCmd), (32 bytes).
    Removing stm32f10x_rcc.o(i.RCC_AdjustHSICalibrationValue), (24 bytes).
    Removing stm32f10x_rcc.o(i.RCC_BackupResetCmd), (12 bytes).
    Removing stm32f10x_rcc.o(i.RCC_ClearFlag), (20 bytes).
    Removing stm32f10x_rcc.o(i.RCC_ClearITPendingBit), (12 bytes).
    Removing stm32f10x_rcc.o(i.RCC_ClockSecuritySystemCmd), (12 bytes).
    Removing stm32f10x_rcc.o(i.RCC_DeInit), (76 bytes).
    Removing stm32f10x_rcc.o(i.RCC_GetClocksFreq), (212 bytes).
    Removing stm32f10x_rcc.o(i.RCC_GetITStatus), (24 bytes).
    Removing stm32f10x_rcc.o(i.RCC_GetSYSCLKSource), (16 bytes).
    Removing stm32f10x_rcc.o(i.RCC_HCLKConfig), (24 bytes).
    Removing stm32f10x_rcc.o(i.RCC_HSEConfig), (76 bytes).
    Removing stm32f10x_rcc.o(i.RCC_HSICmd), (12 bytes).
    Removing stm32f10x_rcc.o(i.RCC_ITConfig), (32 bytes).
    Removing stm32f10x_rcc.o(i.RCC_LSICmd), (12 bytes).
    Removing stm32f10x_rcc.o(i.RCC_MCOConfig), (12 bytes).
    Removing stm32f10x_rcc.o(i.RCC_PCLK1Config), (24 bytes).
    Removing stm32f10x_rcc.o(i.RCC_PCLK2Config), (24 bytes).
    Removing stm32f10x_rcc.o(i.RCC_PLLCmd), (12 bytes).
    Removing stm32f10x_rcc.o(i.RCC_PLLConfig), (28 bytes).
    Removing stm32f10x_rcc.o(i.RCC_SYSCLKConfig), (24 bytes).
    Removing stm32f10x_rcc.o(i.RCC_USBCLKConfig), (12 bytes).
    Removing stm32f10x_rcc.o(i.RCC_WaitForHSEStartUp), (56 bytes).
    Removing stm32f10x_rcc.o(.data), (20 bytes).
    Removing stm32f10x_rtc.o(i.RTC_ClearFlag), (16 bytes).
    Removing stm32f10x_rtc.o(i.RTC_ClearITPendingBit), (16 bytes).
    Removing stm32f10x_rtc.o(i.RTC_GetDivider), (24 bytes).
    Removing stm32f10x_rtc.o(i.RTC_GetFlagStatus), (24 bytes).
    Removing stm32f10x_rtc.o(i.RTC_GetITStatus), (36 bytes).
    Removing stm32f10x_rtc.o(i.RTC_ITConfig), (32 bytes).
    Removing stm32f10x_rtc.o(i.RTC_SetAlarm), (28 bytes).
    Removing stm32f10x_sdio.o(i.SDIO_CEATAITCmd), (16 bytes).
    Removing stm32f10x_sdio.o(i.SDIO_ClearFlag), (12 bytes).
    Removing stm32f10x_sdio.o(i.SDIO_ClearITPendingBit), (12 bytes).
    Removing stm32f10x_sdio.o(i.SDIO_ClockCmd), (12 bytes).
    Removing stm32f10x_sdio.o(i.SDIO_CmdStructInit), (14 bytes).
    Removing stm32f10x_sdio.o(i.SDIO_CommandCompletionCmd), (12 bytes).
    Removing stm32f10x_sdio.o(i.SDIO_DMACmd), (12 bytes).
    Removing stm32f10x_sdio.o(i.SDIO_DataConfig), (48 bytes).
    Removing stm32f10x_sdio.o(i.SDIO_DataStructInit), (20 bytes).
    Removing stm32f10x_sdio.o(i.SDIO_DeInit), (36 bytes).
    Removing stm32f10x_sdio.o(i.SDIO_GetCommandResponse), (12 bytes).
    Removing stm32f10x_sdio.o(i.SDIO_GetDataCounter), (12 bytes).
    Removing stm32f10x_sdio.o(i.SDIO_GetFIFOCount), (12 bytes).
    Removing stm32f10x_sdio.o(i.SDIO_GetFlagStatus), (24 bytes).
    Removing stm32f10x_sdio.o(i.SDIO_GetITStatus), (24 bytes).
    Removing stm32f10x_sdio.o(i.SDIO_GetPowerState), (16 bytes).
    Removing stm32f10x_sdio.o(i.SDIO_GetResponse), (24 bytes).
    Removing stm32f10x_sdio.o(i.SDIO_ITConfig), (32 bytes).
    Removing stm32f10x_sdio.o(i.SDIO_Init), (48 bytes).
    Removing stm32f10x_sdio.o(i.SDIO_ReadData), (12 bytes).
    Removing stm32f10x_sdio.o(i.SDIO_SendCEATACmd), (12 bytes).
    Removing stm32f10x_sdio.o(i.SDIO_SendCommand), (44 bytes).
    Removing stm32f10x_sdio.o(i.SDIO_SendSDIOSuspendCmd), (12 bytes).
    Removing stm32f10x_sdio.o(i.SDIO_SetPowerState), (28 bytes).
    Removing stm32f10x_sdio.o(i.SDIO_SetSDIOOperation), (12 bytes).
    Removing stm32f10x_sdio.o(i.SDIO_SetSDIOReadWaitMode), (12 bytes).
    Removing stm32f10x_sdio.o(i.SDIO_StartSDIOReadWait), (12 bytes).
    Removing stm32f10x_sdio.o(i.SDIO_StopSDIOReadWait), (12 bytes).
    Removing stm32f10x_sdio.o(i.SDIO_StructInit), (16 bytes).
    Removing stm32f10x_sdio.o(i.SDIO_WriteData), (12 bytes).
    Removing stm32f10x_spi.o(i.I2S_Cmd), (24 bytes).
    Removing stm32f10x_spi.o(i.I2S_Init), (232 bytes).
    Removing stm32f10x_spi.o(i.I2S_StructInit), (20 bytes).
    Removing stm32f10x_spi.o(i.SPI_BiDirectionalLineConfig), (28 bytes).
    Removing stm32f10x_spi.o(i.SPI_CalculateCRC), (24 bytes).
    Removing stm32f10x_spi.o(i.SPI_Cmd), (24 bytes).
    Removing stm32f10x_spi.o(i.SPI_DataSizeConfig), (18 bytes).
    Removing stm32f10x_spi.o(i.SPI_GetCRC), (16 bytes).
    Removing stm32f10x_spi.o(i.SPI_GetCRCPolynomial), (6 bytes).
    Removing stm32f10x_spi.o(i.SPI_I2S_ClearFlag), (6 bytes).
    Removing stm32f10x_spi.o(i.SPI_I2S_ClearITPendingBit), (20 bytes).
    Removing stm32f10x_spi.o(i.SPI_I2S_DMACmd), (18 bytes).
    Removing stm32f10x_spi.o(i.SPI_I2S_DeInit), (88 bytes).
    Removing stm32f10x_spi.o(i.SPI_I2S_GetFlagStatus), (18 bytes).
    Removing stm32f10x_spi.o(i.SPI_I2S_GetITStatus), (52 bytes).
    Removing stm32f10x_spi.o(i.SPI_I2S_ITConfig), (32 bytes).
    Removing stm32f10x_spi.o(i.SPI_I2S_ReceiveData), (6 bytes).
    Removing stm32f10x_spi.o(i.SPI_I2S_SendData), (4 bytes).
    Removing stm32f10x_spi.o(i.SPI_Init), (60 bytes).
    Removing stm32f10x_spi.o(i.SPI_NSSInternalSoftwareConfig), (30 bytes).
    Removing stm32f10x_spi.o(i.SPI_SSOutputCmd), (24 bytes).
    Removing stm32f10x_spi.o(i.SPI_StructInit), (24 bytes).
    Removing stm32f10x_spi.o(i.SPI_TransmitCRC), (10 bytes).
    Removing stm32f10x_tim.o(i.TI1_Config), (128 bytes).
    Removing stm32f10x_tim.o(i.TI2_Config), (152 bytes).
    Removing stm32f10x_tim.o(i.TI3_Config), (144 bytes).
    Removing stm32f10x_tim.o(i.TI4_Config), (152 bytes).
    Removing stm32f10x_tim.o(i.TIM_ARRPreloadConfig), (24 bytes).
    Removing stm32f10x_tim.o(i.TIM_BDTRConfig), (32 bytes).
    Removing stm32f10x_tim.o(i.TIM_BDTRStructInit), (18 bytes).
    Removing stm32f10x_tim.o(i.TIM_CCPreloadControl), (24 bytes).
    Removing stm32f10x_tim.o(i.TIM_CCxCmd), (30 bytes).
    Removing stm32f10x_tim.o(i.TIM_CCxNCmd), (30 bytes).
    Removing stm32f10x_tim.o(i.TIM_ClearFlag), (6 bytes).
    Removing stm32f10x_tim.o(i.TIM_ClearOC1Ref), (18 bytes).
    Removing stm32f10x_tim.o(i.TIM_ClearOC2Ref), (24 bytes).
    Removing stm32f10x_tim.o(i.TIM_ClearOC3Ref), (18 bytes).
    Removing stm32f10x_tim.o(i.TIM_ClearOC4Ref), (24 bytes).
    Removing stm32f10x_tim.o(i.TIM_CounterModeConfig), (18 bytes).
    Removing stm32f10x_tim.o(i.TIM_CtrlPWMOutputs), (30 bytes).
    Removing stm32f10x_tim.o(i.TIM_DMACmd), (18 bytes).
    Removing stm32f10x_tim.o(i.TIM_DMAConfig), (10 bytes).
    Removing stm32f10x_tim.o(i.TIM_DeInit), (488 bytes).
    Removing stm32f10x_tim.o(i.TIM_ETRClockMode1Config), (54 bytes).
    Removing stm32f10x_tim.o(i.TIM_ETRClockMode2Config), (32 bytes).
    Removing stm32f10x_tim.o(i.TIM_ETRConfig), (28 bytes).
    Removing stm32f10x_tim.o(i.TIM_EncoderInterfaceConfig), (66 bytes).
    Removing stm32f10x_tim.o(i.TIM_ForcedOC1Config), (18 bytes).
    Removing stm32f10x_tim.o(i.TIM_ForcedOC2Config), (26 bytes).
    Removing stm32f10x_tim.o(i.TIM_ForcedOC3Config), (18 bytes).
    Removing stm32f10x_tim.o(i.TIM_ForcedOC4Config), (26 bytes).
    Removing stm32f10x_tim.o(i.TIM_GenerateEvent), (4 bytes).
    Removing stm32f10x_tim.o(i.TIM_GetCapture2), (6 bytes).
    Removing stm32f10x_tim.o(i.TIM_GetCapture3), (6 bytes).
    Removing stm32f10x_tim.o(i.TIM_GetCapture4), (8 bytes).
    Removing stm32f10x_tim.o(i.TIM_GetCounter), (6 bytes).
    Removing stm32f10x_tim.o(i.TIM_GetFlagStatus), (18 bytes).
    Removing stm32f10x_tim.o(i.TIM_GetPrescaler), (6 bytes).
    Removing stm32f10x_tim.o(i.TIM_ICInit), (172 bytes).
    Removing stm32f10x_tim.o(i.TIM_ICStructInit), (18 bytes).
    Removing stm32f10x_tim.o(i.TIM_ITConfig), (18 bytes).
    Removing stm32f10x_tim.o(i.TIM_ITRxExternalClockConfig), (24 bytes).
    Removing stm32f10x_tim.o(i.TIM_InternalClockConfig), (12 bytes).
    Removing stm32f10x_tim.o(i.TIM_OC1FastConfig), (18 bytes).
    Removing stm32f10x_tim.o(i.TIM_OC1Init), (152 bytes).
    Removing stm32f10x_tim.o(i.TIM_OC1NPolarityConfig), (18 bytes).
    Removing stm32f10x_tim.o(i.TIM_OC1PolarityConfig), (18 bytes).
    Removing stm32f10x_tim.o(i.TIM_OC1PreloadConfig), (18 bytes).
    Removing stm32f10x_tim.o(i.TIM_OC2FastConfig), (26 bytes).
    Removing stm32f10x_tim.o(i.TIM_OC2Init), (164 bytes).
    Removing stm32f10x_tim.o(i.TIM_OC2NPolarityConfig), (26 bytes).
    Removing stm32f10x_tim.o(i.TIM_OC2PolarityConfig), (26 bytes).
    Removing stm32f10x_tim.o(i.TIM_OC2PreloadConfig), (26 bytes).
    Removing stm32f10x_tim.o(i.TIM_OC3FastConfig), (18 bytes).
    Removing stm32f10x_tim.o(i.TIM_OC3Init), (160 bytes).
    Removing stm32f10x_tim.o(i.TIM_OC3NPolarityConfig), (26 bytes).
    Removing stm32f10x_tim.o(i.TIM_OC3PolarityConfig), (26 bytes).
    Removing stm32f10x_tim.o(i.TIM_OC3PreloadConfig), (18 bytes).
    Removing stm32f10x_tim.o(i.TIM_OC4FastConfig), (26 bytes).
    Removing stm32f10x_tim.o(i.TIM_OC4Init), (124 bytes).
    Removing stm32f10x_tim.o(i.TIM_OC4PolarityConfig), (26 bytes).
    Removing stm32f10x_tim.o(i.TIM_OC4PreloadConfig), (26 bytes).
    Removing stm32f10x_tim.o(i.TIM_OCStructInit), (20 bytes).
    Removing stm32f10x_tim.o(i.TIM_PWMIConfig), (124 bytes).
    Removing stm32f10x_tim.o(i.TIM_PrescalerConfig), (6 bytes).
    Removing stm32f10x_tim.o(i.TIM_SelectCCDMA), (24 bytes).
    Removing stm32f10x_tim.o(i.TIM_SelectCOM), (24 bytes).
    Removing stm32f10x_tim.o(i.TIM_SelectHallSensor), (24 bytes).
    Removing stm32f10x_tim.o(i.TIM_SelectInputTrigger), (18 bytes).
    Removing stm32f10x_tim.o(i.TIM_SelectMasterSlaveMode), (18 bytes).
    Removing stm32f10x_tim.o(i.TIM_SelectOCxM), (82 bytes).
    Removing stm32f10x_tim.o(i.TIM_SelectOnePulseMode), (18 bytes).
    Removing stm32f10x_tim.o(i.TIM_SelectOutputTrigger), (18 bytes).
    Removing stm32f10x_tim.o(i.TIM_SelectSlaveMode), (18 bytes).
    Removing stm32f10x_tim.o(i.TIM_SetClockDivision), (18 bytes).
    Removing stm32f10x_tim.o(i.TIM_SetCompare1), (4 bytes).
    Removing stm32f10x_tim.o(i.TIM_SetCompare2), (4 bytes).
    Removing stm32f10x_tim.o(i.TIM_SetCounter), (4 bytes).
    Removing stm32f10x_tim.o(i.TIM_SetIC1Prescaler), (18 bytes).
    Removing stm32f10x_tim.o(i.TIM_SetIC2Prescaler), (26 bytes).
    Removing stm32f10x_tim.o(i.TIM_SetIC3Prescaler), (18 bytes).
    Removing stm32f10x_tim.o(i.TIM_SetIC4Prescaler), (26 bytes).
    Removing stm32f10x_tim.o(i.TIM_TIxExternalClockConfig), (62 bytes).
    Removing stm32f10x_tim.o(i.TIM_TimeBaseInit), (164 bytes).
    Removing stm32f10x_tim.o(i.TIM_TimeBaseStructInit), (18 bytes).
    Removing stm32f10x_tim.o(i.TIM_UpdateDisableConfig), (24 bytes).
    Removing stm32f10x_tim.o(i.TIM_UpdateRequestConfig), (24 bytes).
    Removing stm32f10x_usart.o(i.USART_ClearFlag), (18 bytes).
    Removing stm32f10x_usart.o(i.USART_ClockInit), (34 bytes).
    Removing stm32f10x_usart.o(i.USART_ClockStructInit), (12 bytes).
    Removing stm32f10x_usart.o(i.USART_Cmd), (24 bytes).
    Removing stm32f10x_usart.o(i.USART_DMACmd), (18 bytes).
    Removing stm32f10x_usart.o(i.USART_DeInit), (156 bytes).
    Removing stm32f10x_usart.o(i.USART_GetFlagStatus), (26 bytes).
    Removing stm32f10x_usart.o(i.USART_HalfDuplexCmd), (24 bytes).
    Removing stm32f10x_usart.o(i.USART_ITConfig), (74 bytes).
    Removing stm32f10x_usart.o(i.USART_Init), (216 bytes).
    Removing stm32f10x_usart.o(i.USART_IrDACmd), (24 bytes).
    Removing stm32f10x_usart.o(i.USART_IrDAConfig), (18 bytes).
    Removing stm32f10x_usart.o(i.USART_LINBreakDetectLengthConfig), (18 bytes).
    Removing stm32f10x_usart.o(i.USART_LINCmd), (24 bytes).
    Removing stm32f10x_usart.o(i.USART_OneBitMethodCmd), (24 bytes).
    Removing stm32f10x_usart.o(i.USART_OverSampling8Cmd), (22 bytes).
    Removing stm32f10x_usart.o(i.USART_ReceiverWakeUpCmd), (24 bytes).
    Removing stm32f10x_usart.o(i.USART_SendBreak), (10 bytes).
    Removing stm32f10x_usart.o(i.USART_SendData), (8 bytes).
    Removing stm32f10x_usart.o(i.USART_SetAddress), (18 bytes).
    Removing stm32f10x_usart.o(i.USART_SetGuardTime), (16 bytes).
    Removing stm32f10x_usart.o(i.USART_SetPrescaler), (16 bytes).
    Removing stm32f10x_usart.o(i.USART_SmartCardCmd), (24 bytes).
    Removing stm32f10x_usart.o(i.USART_SmartCardNACKCmd), (24 bytes).
    Removing stm32f10x_usart.o(i.USART_StructInit), (24 bytes).
    Removing stm32f10x_usart.o(i.USART_WakeUpConfig), (18 bytes).
    Removing stm32f10x_wwdg.o(i.WWDG_ClearFlag), (12 bytes).
    Removing stm32f10x_wwdg.o(i.WWDG_DeInit), (22 bytes).
    Removing stm32f10x_wwdg.o(i.WWDG_Enable), (16 bytes).
    Removing stm32f10x_wwdg.o(i.WWDG_EnableIT), (12 bytes).
    Removing stm32f10x_wwdg.o(i.WWDG_GetFlagStatus), (12 bytes).
    Removing stm32f10x_wwdg.o(i.WWDG_SetCounter), (16 bytes).
    Removing stm32f10x_wwdg.o(i.WWDG_SetPrescaler), (24 bytes).
    Removing stm32f10x_wwdg.o(i.WWDG_SetWindowValue), (40 bytes).
    Removing sys.o(.emb_text), (6 bytes).
    Removing sys.o(i.INTX_DISABLE), (4 bytes).
    Removing sys.o(i.INTX_ENABLE), (4 bytes).
    Removing sys.o(i.WFI_SET), (4 bytes).
    Removing key.o(i.KeyNum_Get), (88 bytes).
    Removing key.o(i.Key_Init), (44 bytes).
    Removing led.o(i.LED_Init), (56 bytes).
    Removing oled.o(i.OLED_ShowBinNum), (62 bytes).
    Removing oled.o(i.OLED_ShowHexNum), (84 bytes).
    Removing oled.o(i.OLED_ShowSignedNum), (102 bytes).
    Removing serial.o(i.Serial_Init), (184 bytes).
    Removing serial.o(i.Serial_Pow), (20 bytes).
    Removing serial.o(i.Serial_SendArray), (26 bytes).
    Removing serial.o(i.Serial_SendByte), (32 bytes).
    Removing serial.o(i.Serial_SendNumber), (58 bytes).
    Removing serial.o(i.Serial_SendString), (26 bytes).
    Removing esp8266.o(i.Esp8266_Init), (8 bytes).
    Removing esp8266.o(i.Esp8266_ModeNetSet), (1008 bytes).
    Removing esp8266.o(i.Esp8266_Mqtt_Connect), (24 bytes).
    Removing esp8266.o(i.Esp8266_WriteCmd), (196 bytes).
    Removing esp8266.o(i.Esp8266_detect), (92 bytes).
    Removing esp8266.o(.conststring), (66 bytes).
    Removing dth11.o(i.Dth11_Init), (8 bytes).
    Removing dth11.o(i.Dth11_OLED_Show), (52 bytes).
    Removing dth11.o(i.Dth11_Read), (728 bytes).
    Removing dth11.o(i.Pow), (26 bytes).
    Removing ic.o(i.IC_Init), (200 bytes).
    Removing motor.o(i.Motor_Init), (52 bytes).
    Removing pwm.o(i.PWM_Init), (160 bytes).
    Removing sgp30.o(i.SGP30_Init), (16 bytes).
    Removing sgp30.o(i.SGP30_Read), (244 bytes).
    Removing sgp30.o(i.SGP30_WaitEvent), (36 bytes).
    Removing sgp30.o(i.SGP30_Write), (112 bytes).
    Removing ad.o(i.PH_AD_GetValue), (124 bytes).
    Removing ad.o(i.PH_AD_Init), (148 bytes).
    Removing ad.o(i.SOIL_AD_GetValue), (124 bytes).
    Removing ad.o(i.SOIL_AD_Init), (148 bytes).
    Removing ad.o(.bss), (40 bytes).
    Removing ad.o(.data), (4 bytes).
    Removing phsensor.o(i.PhSensorValue_Get), (312 bytes).
    Removing phsensor.o(i.PhSensor_Init), (8 bytes).
    Removing phsensor.o(i.PhSensor_SendDataToTcp), (128 bytes).
    Removing ds18b20.o(i.DS18B20_ConvertT), (20 bytes).
    Removing ds18b20.o(i.DS18B20_Detect), (132 bytes).
    Removing ds18b20.o(i.DS18B20_Init), (12 bytes).
    Removing ds18b20.o(i.DS18B20_ReadT), (152 bytes).
    Removing ds18b20.o(i.DS18B20_SendDataToTcp), (148 bytes).
    Removing onewire.o(i.OneWire_Init), (44 bytes).
    Removing onewire.o(i.OneWire_ReceiveBit), (56 bytes).
    Removing onewire.o(i.OneWire_ReceiveByte), (34 bytes).
    Removing onewire.o(i.OneWire_SendBit), (56 bytes).
    Removing onewire.o(i.OneWire_SendByte), (30 bytes).
    Removing onewire.o(i.OneWire_Set_In), (32 bytes).
    Removing onewire.o(i.OneWire_Set_Out), (36 bytes).
    Removing my_i2c.o(i.My_I2C_Init), (144 bytes).
    Removing bh1750.o(i.BH1750_Init), (26 bytes).
    Removing bh1750.o(i.Multiple_read_BH1750), (116 bytes).
    Removing bh1750.o(i.Single_Write_BH1750), (26 bytes).
    Removing soilhumsensor.o(i.SoilHumSensor_Init), (8 bytes).
    Removing soilhumsensor.o(i.SoilHumSensor_SendDataToTcp), (140 bytes).
    Removing soilhumsensor.o(i.SoilHumValue_Get), (72 bytes).
    Removing pump.o(i.Pump_Init), (52 bytes).
    Removing valve1.o(i.Valve1_Init), (52 bytes).
    Removing heatingcore.o(i.HeatingCore_Init), (52 bytes).
    Removing valve2.o(i.Valve2_Init), (52 bytes).
    Removing _28byj48.o(i._28BYJ48_Init), (136 bytes).
    Removing myi2c.o(i.MyI2C_Init), (56 bytes).
    Removing myi2c.o(i.MyI2C_R_SDA), (28 bytes).
    Removing myi2c.o(i.MyI2C_ReceiveAck), (30 bytes).
    Removing myi2c.o(i.MyI2C_ReceiveByte), (52 bytes).
    Removing myi2c.o(i.MyI2C_SendAck), (24 bytes).
    Removing myi2c.o(i.MyI2C_SendByte), (54 bytes).
    Removing myi2c.o(i.MyI2C_Start), (28 bytes).
    Removing myi2c.o(i.MyI2C_Stop), (22 bytes).
    Removing myi2c.o(i.MyI2C_W_SCL), (28 bytes).
    Removing myi2c.o(i.MyI2C_W_SDA), (28 bytes).
    Removing interactwithtcp.o(i.Module_Init), (68 bytes).
    Removing interactwithtcp.o(i.SendPropertyToMqtt), (320 bytes).
    Removing interactwithtcp.o(.conststring), (215 bytes).
    Removing dump.o(i.do_dump), (916 bytes).
    Removing dump.o(i.dump_indent), (96 bytes).
    Removing dump.o(i.dump_string), (332 bytes).
    Removing dump.o(i.dump_to_file), (24 bytes).
    Removing dump.o(i.dump_to_strbuffer), (16 bytes).
    Removing dump.o(i.json_dump_callback), (42 bytes).
    Removing dump.o(i.json_dump_file), (52 bytes).
    Removing dump.o(i.json_dumpf), (20 bytes).
    Removing dump.o(i.json_dumps), (68 bytes).
    Removing dump.o(i.object_key_compare_keys), (12 bytes).
    Removing dump.o(i.object_key_compare_serials), (26 bytes).
    Removing dump.o(.constdata), (33 bytes).
    Removing load.o(i.buffer_get), (26 bytes).
    Removing load.o(i.callback_get), (56 bytes).
    Removing load.o(i.json_load_callback), (140 bytes).
    Removing load.o(i.json_load_file), (136 bytes).
    Removing load.o(i.json_loadb), (120 bytes).
    Removing load.o(i.json_loadf), (132 bytes).
    Removing pack_unpack.o(i.json_decref), (24 bytes).
    Removing pack_unpack.o(i.json_incref), (16 bytes).
    Removing pack_unpack.o(i.json_pack), (24 bytes).
    Removing pack_unpack.o(i.json_pack_ex), (20 bytes).
    Removing pack_unpack.o(i.json_unpack), (26 bytes).
    Removing pack_unpack.o(i.json_unpack_ex), (22 bytes).
    Removing pack_unpack.o(i.json_vpack_ex), (196 bytes).
    Removing pack_unpack.o(i.json_vunpack_ex), (240 bytes).
    Removing pack_unpack.o(i.next_token), (128 bytes).
    Removing pack_unpack.o(i.pack), (280 bytes).
    Removing pack_unpack.o(i.pack_array), (176 bytes).
    Removing pack_unpack.o(i.pack_object), (304 bytes).
    Removing pack_unpack.o(i.prev_token), (20 bytes).
    Removing pack_unpack.o(i.read_string), (348 bytes).
    Removing pack_unpack.o(i.scanner_init), (44 bytes).
    Removing pack_unpack.o(i.set_error), (44 bytes).
    Removing pack_unpack.o(i.unpack), (820 bytes).
    Removing pack_unpack.o(i.unpack_array), (476 bytes).
    Removing pack_unpack.o(i.unpack_object), (680 bytes).
    Removing pack_unpack.o(.constdata), (44 bytes).
    Removing pack_unpack.o(.conststring), (61 bytes).
    Removing value.o(i.array_move), (22 bytes).
    Removing value.o(i.json_array_clear), (48 bytes).
    Removing value.o(i.json_array_extend), (92 bytes).
    Removing value.o(i.json_array_get), (28 bytes).
    Removing value.o(i.json_array_insert_new), (138 bytes).
    Removing value.o(i.json_array_remove), (72 bytes).
    Removing value.o(i.json_array_set_new), (68 bytes).
    Removing value.o(i.json_array_size), (18 bytes).
    Removing value.o(i.json_copy), (188 bytes).
    Removing value.o(i.json_deep_copy), (128 bytes).
    Removing value.o(i.json_equal), (208 bytes).
    Removing value.o(i.json_incref), (16 bytes).
    Removing value.o(i.json_integer_set), (24 bytes).
    Removing value.o(i.json_number_value), (38 bytes).
    Removing value.o(i.json_object_clear), (32 bytes).
    Removing value.o(i.json_object_deep_copy), (62 bytes).
    Removing value.o(i.json_object_del), (30 bytes).
    Removing value.o(i.json_object_equal), (92 bytes).
    Removing value.o(i.json_object_iter_at), (28 bytes).
    Removing value.o(i.json_object_iter_set_new), (40 bytes).
    Removing value.o(i.json_object_key_to_iter), (8 bytes).
    Removing value.o(i.json_object_set_new), (52 bytes).
    Removing value.o(i.json_object_set_nocheck), (24 bytes).
    Removing value.o(i.json_object_size), (18 bytes).
    Removing value.o(i.json_object_update), (92 bytes).
    Removing value.o(i.json_object_update_existing), (98 bytes).
    Removing value.o(i.json_object_update_missing), (98 bytes).
    Removing value.o(i.json_real_set), (54 bytes).
    Removing value.o(i.json_string), (24 bytes).
    Removing value.o(i.json_string_copy), (28 bytes).
    Removing value.o(i.json_string_length), (18 bytes).
    Removing value.o(i.json_string_nocheck), (26 bytes).
    Removing value.o(i.json_string_set), (32 bytes).
    Removing value.o(i.json_string_set_nocheck), (32 bytes).
    Removing value.o(i.json_string_setn), (40 bytes).
    Removing value.o(i.json_string_setn_nocheck), (56 bytes).
    Removing value.o(i.json_stringn), (32 bytes).
    Removing value.o(i.json_stringn_nocheck), (10 bytes).
    Removing hashtable.o(i.hashtable_clear), (52 bytes).
    Removing hashtable.o(i.hashtable_del), (40 bytes).
    Removing hashtable.o(i.hashtable_do_del), (118 bytes).
    Removing hashtable.o(i.hashtable_iter_at), (64 bytes).
    Removing hashtable.o(i.hashtable_iter_serial), (4 bytes).
    Removing hashtable.o(i.hashtable_iter_set), (16 bytes).
    Removing memory.o(i.json_set_alloc_funcs), (12 bytes).
    Removing memory.o(i.jsonp_strdup), (18 bytes).
    Removing strbuffer.o(i.strbuffer_append), (24 bytes).
    Removing strbuffer.o(i.strbuffer_steal_value), (10 bytes).
    Removing strconv.o(i.jsonp_dtostr), (160 bytes).
    Removing utf.o(i.utf8_check_string), (62 bytes).
    Removing utf.o(i.utf8_iterate), (64 bytes).
    Removing fadd.o(.text), (176 bytes).
    Removing fmul.o(.text), (100 bytes).
    Removing fdiv.o(.text), (124 bytes).
    Removing fflti.o(.text), (18 bytes).
    Removing ffltui.o(.text), (10 bytes).
    Removing dfltui.o(.text), (26 bytes).
    Removing dfltl.o(.text), (40 bytes).
    Removing ffixui.o(.text), (40 bytes).
    Removing f2d.o(.text), (38 bytes).

623 unused section(s) (total 35471 bytes) removed from the image.

==============================================================================

Image Symbol Table

    Local Symbols

    Symbol Name                              Value     Ov Type        Size  Object(Section)

    ../clib/microlib/ctype/ctype.c           0x00000000   Number         0  isgraph_o.o ABSOLUTE
    ../clib/microlib/ctype/ctype.c           0x00000000   Number         0  islower_o.o ABSOLUTE
    ../clib/microlib/ctype/ctype.c           0x00000000   Number         0  isdigit_o.o ABSOLUTE
    ../clib/microlib/ctype/ctype.c           0x00000000   Number         0  iscntrl_o.o ABSOLUTE
    ../clib/microlib/ctype/ctype.c           0x00000000   Number         0  isupper_o.o ABSOLUTE
    ../clib/microlib/ctype/ctype.c           0x00000000   Number         0  isblank_o.o ABSOLUTE
    ../clib/microlib/ctype/ctype.c           0x00000000   Number         0  isxdigit_o.o ABSOLUTE
    ../clib/microlib/ctype/ctype.c           0x00000000   Number         0  isalpha_o.o ABSOLUTE
    ../clib/microlib/ctype/ctype.c           0x00000000   Number         0  ctype_c.o ABSOLUTE
    ../clib/microlib/ctype/ctype.c           0x00000000   Number         0  isalnum_o.o ABSOLUTE
    ../clib/microlib/ctype/ctype.c           0x00000000   Number         0  isspace_o.o ABSOLUTE
    ../clib/microlib/ctype/ctype.c           0x00000000   Number         0  ctype_o.o ABSOLUTE
    ../clib/microlib/ctype/ctype.c           0x00000000   Number         0  isprint_o.o ABSOLUTE
    ../clib/microlib/ctype/ctype.c           0x00000000   Number         0  isspace_c.o ABSOLUTE
    ../clib/microlib/ctype/ctype.c           0x00000000   Number         0  ispunct_o.o ABSOLUTE
    ../clib/microlib/division.c              0x00000000   Number         0  uidiv.o ABSOLUTE
    ../clib/microlib/division.c              0x00000000   Number         0  uldiv.o ABSOLUTE
    ../clib/microlib/errno.c                 0x00000000   Number         0  errno.o ABSOLUTE
    ../clib/microlib/init/entry.s            0x00000000   Number         0  entry10b.o ABSOLUTE
    ../clib/microlib/init/entry.s            0x00000000   Number         0  entry7a.o ABSOLUTE
    ../clib/microlib/init/entry.s            0x00000000   Number         0  entry5.o ABSOLUTE
    ../clib/microlib/init/entry.s            0x00000000   Number         0  entry2.o ABSOLUTE
    ../clib/microlib/init/entry.s            0x00000000   Number         0  entry11a.o ABSOLUTE
    ../clib/microlib/init/entry.s            0x00000000   Number         0  entry10a.o ABSOLUTE
    ../clib/microlib/init/entry.s            0x00000000   Number         0  entry9b.o ABSOLUTE
    ../clib/microlib/init/entry.s            0x00000000   Number         0  entry9a.o ABSOLUTE
    ../clib/microlib/init/entry.s            0x00000000   Number         0  entry.o ABSOLUTE
    ../clib/microlib/init/entry.s            0x00000000   Number         0  entry7b.o ABSOLUTE
    ../clib/microlib/init/entry.s            0x00000000   Number         0  entry8b.o ABSOLUTE
    ../clib/microlib/init/entry.s            0x00000000   Number         0  entry8a.o ABSOLUTE
    ../clib/microlib/init/entry.s            0x00000000   Number         0  entry11b.o ABSOLUTE
    ../clib/microlib/longlong.c              0x00000000   Number         0  llushr.o ABSOLUTE
    ../clib/microlib/longlong.c              0x00000000   Number         0  llshl.o ABSOLUTE
    ../clib/microlib/longlong.c              0x00000000   Number         0  llsshr.o ABSOLUTE
    ../clib/microlib/malloc/malloc.c         0x00000000   Number         0  mallocra.o ABSOLUTE
    ../clib/microlib/malloc/malloc.c         0x00000000   Number         0  malloca.o ABSOLUTE
    ../clib/microlib/malloc/malloc.c         0x00000000   Number         0  malloc.o ABSOLUTE
    ../clib/microlib/malloc/malloc.c         0x00000000   Number         0  mallocr.o ABSOLUTE
    ../clib/microlib/malloc/mvars.c          0x00000000   Number         0  mvars.o ABSOLUTE
    ../clib/microlib/printf/printf.c         0x00000000   Number         0  printf3.o ABSOLUTE
    ../clib/microlib/printf/printf.c         0x00000000   Number         0  printf4.o ABSOLUTE
    ../clib/microlib/printf/printf.c         0x00000000   Number         0  printf0.o ABSOLUTE
    ../clib/microlib/printf/printf.c         0x00000000   Number         0  printf1.o ABSOLUTE
    ../clib/microlib/printf/printf.c         0x00000000   Number         0  printf2.o ABSOLUTE
    ../clib/microlib/printf/printf.c         0x00000000   Number         0  printf5.o ABSOLUTE
    ../clib/microlib/printf/printf.c         0x00000000   Number         0  printf6.o ABSOLUTE
    ../clib/microlib/printf/printf.c         0x00000000   Number         0  printfa.o ABSOLUTE
    ../clib/microlib/printf/printf.c         0x00000000   Number         0  printf7.o ABSOLUTE
    ../clib/microlib/printf/printf.c         0x00000000   Number         0  printf8.o ABSOLUTE
    ../clib/microlib/printf/printf.c         0x00000000   Number         0  printfb.o ABSOLUTE
    ../clib/microlib/printf/stubs.s          0x00000000   Number         0  stubs.o ABSOLUTE
    ../clib/microlib/stdio/fclose.c          0x00000000   Number         0  fclose.o ABSOLUTE
    ../clib/microlib/stdio/fgetc.c           0x00000000   Number         0  fgetc_ub.o ABSOLUTE
    ../clib/microlib/stdio/fgetc.c           0x00000000   Number         0  fgetc_b.o ABSOLUTE
    ../clib/microlib/stdio/fgetc.c           0x00000000   Number         0  fgetc_u.o ABSOLUTE
    ../clib/microlib/stdio/fgetc.c           0x00000000   Number         0  fgetc.o ABSOLUTE
    ../clib/microlib/stdio/fopen.c           0x00000000   Number         0  fopen.o ABSOLUTE
    ../clib/microlib/stdio/fputc.c           0x00000000   Number         0  fputc.o ABSOLUTE
    ../clib/microlib/stdio/fwrite.c          0x00000000   Number         0  fwrite.o ABSOLUTE
    ../clib/microlib/stdio/fwrite.c          0x00000000   Number         0  fwrite_e.o ABSOLUTE
    ../clib/microlib/stdio/semi.s            0x00000000   Number         0  semi.o ABSOLUTE
    ../clib/microlib/stdio/streams.c         0x00000000   Number         0  stdin.o ABSOLUTE
    ../clib/microlib/stdio/streams.c         0x00000000   Number         0  stdout.o ABSOLUTE
    ../clib/microlib/stdlib/abort.c          0x00000000   Number         0  abort.o ABSOLUTE
    ../clib/microlib/stdlib/qsort.c          0x00000000   Number         0  qsort.o ABSOLUTE
    ../clib/microlib/string/memchr.c         0x00000000   Number         0  memchr.o ABSOLUTE
    ../clib/microlib/string/memcmp.c         0x00000000   Number         0  memcmp.o ABSOLUTE
    ../clib/microlib/string/memcpy.c         0x00000000   Number         0  memcpya.o ABSOLUTE
    ../clib/microlib/string/memcpy.c         0x00000000   Number         0  memmovea.o ABSOLUTE
    ../clib/microlib/string/memcpy.c         0x00000000   Number         0  memmoveb.o ABSOLUTE
    ../clib/microlib/string/memcpy.c         0x00000000   Number         0  memcpyb.o ABSOLUTE
    ../clib/microlib/string/memset.c         0x00000000   Number         0  memseta.o ABSOLUTE
    ../clib/microlib/string/strcat.c         0x00000000   Number         0  strcat.o ABSOLUTE
    ../clib/microlib/string/strchr.c         0x00000000   Number         0  strchr.o ABSOLUTE
    ../clib/microlib/string/strcmp.c         0x00000000   Number         0  strcmp.o ABSOLUTE
    ../clib/microlib/string/strcpy.c         0x00000000   Number         0  strcpy.o ABSOLUTE
    ../clib/microlib/string/strerror.c       0x00000000   Number         0  strerror.o ABSOLUTE
    ../clib/microlib/string/strlen.c         0x00000000   Number         0  strlen.o ABSOLUTE
    ../clib/microlib/string/strstr.c         0x00000000   Number         0  strstr.o ABSOLUTE
    ../clib/microlib/stubs.s                 0x00000000   Number         0  iusesemip.o ABSOLUTE
    ../clib/microlib/stubs.s                 0x00000000   Number         0  iusefp.o ABSOLUTE
    ../clib/microlib/stubs.s                 0x00000000   Number         0  iusesemig.o ABSOLUTE
    ../clib/microlib/time/localtime.c        0x00000000   Number         0  localtime.o ABSOLUTE
    ../clib/microlib/time/localtime.c        0x00000000   Number         0  localtime_i.o ABSOLUTE
    ../clib/microlib/time/localtime.c        0x00000000   Number         0  localtime_w.o ABSOLUTE
    ../clib/microlib/time/mktime.c           0x00000000   Number         0  mktime.o ABSOLUTE
    ../clib/scanf.c                          0x00000000   Number         0  _strtoull.o ABSOLUTE
    ../clib/scanf.c                          0x00000000   Number         0  strtod.o ABSOLUTE
    ../clib/scanf.c                          0x00000000   Number         0  __strtoll.o ABSOLUTE
    ../clib/scanf.c                          0x00000000   Number         0  strtoll.o ABSOLUTE
    ../clib/scanf.c                          0x00000000   Number         0  scanf_fp.o ABSOLUTE
    ../clib/scanf.c                          0x00000000   Number         0  _sgetc.o ABSOLUTE
    ../clib/scanf.c                          0x00000000   Number         0  _chval.o ABSOLUTE
    ../fplib/microlib/d2f.c                  0x00000000   Number         0  d2f.o ABSOLUTE
    ../fplib/microlib/f2d.c                  0x00000000   Number         0  f2d.o ABSOLUTE
    ../fplib/microlib/fpadd.c                0x00000000   Number         0  fadd.o ABSOLUTE
    ../fplib/microlib/fpadd.c                0x00000000   Number         0  dadd.o ABSOLUTE
    ../fplib/microlib/fpdiv.c                0x00000000   Number         0  fdiv.o ABSOLUTE
    ../fplib/microlib/fpdiv.c                0x00000000   Number         0  ddiv.o ABSOLUTE
    ../fplib/microlib/fpepilogue.c           0x00000000   Number         0  fepilogue.o ABSOLUTE
    ../fplib/microlib/fpepilogue.c           0x00000000   Number         0  depilogue.o ABSOLUTE
    ../fplib/microlib/fpfix.c                0x00000000   Number         0  dfixul.o ABSOLUTE
    ../fplib/microlib/fpfix.c                0x00000000   Number         0  dfixui.o ABSOLUTE
    ../fplib/microlib/fpfix.c                0x00000000   Number         0  ffixui.o ABSOLUTE
    ../fplib/microlib/fpflt.c                0x00000000   Number         0  ffltui.o ABSOLUTE
    ../fplib/microlib/fpflt.c                0x00000000   Number         0  fflti.o ABSOLUTE
    ../fplib/microlib/fpflt.c                0x00000000   Number         0  dfltul.o ABSOLUTE
    ../fplib/microlib/fpflt.c                0x00000000   Number         0  dfltui.o ABSOLUTE
    ../fplib/microlib/fpflt.c                0x00000000   Number         0  dfltl.o ABSOLUTE
    ../fplib/microlib/fpmul.c                0x00000000   Number         0  dmul.o ABSOLUTE
    ../fplib/microlib/fpmul.c                0x00000000   Number         0  fmul.o ABSOLUTE
    ../mathlib/strtod.c                      0x00000000   Number         0  strtod.o ABSOLUTE
    ..\release\jansson-2.7\src\dump.c        0x00000000   Number         0  dump.o ABSOLUTE
    ..\release\jansson-2.7\src\error.c       0x00000000   Number         0  error.o ABSOLUTE
    ..\release\jansson-2.7\src\hashtable.c   0x00000000   Number         0  hashtable.o ABSOLUTE
    ..\release\jansson-2.7\src\load.c        0x00000000   Number         0  load.o ABSOLUTE
    ..\release\jansson-2.7\src\memory.c      0x00000000   Number         0  memory.o ABSOLUTE
    ..\release\jansson-2.7\src\pack_unpack.c 0x00000000   Number         0  pack_unpack.o ABSOLUTE
    ..\release\jansson-2.7\src\strbuffer.c   0x00000000   Number         0  strbuffer.o ABSOLUTE
    ..\release\jansson-2.7\src\strconv.c     0x00000000   Number         0  strconv.o ABSOLUTE
    ..\release\jansson-2.7\src\utf.c         0x00000000   Number         0  utf.o ABSOLUTE
    ..\release\jansson-2.7\src\value.c       0x00000000   Number         0  value.o ABSOLUTE
    Hardware\AD.c                            0x00000000   Number         0  ad.o ABSOLUTE
    Hardware\BH1750.c                        0x00000000   Number         0  bh1750.o ABSOLUTE
    Hardware\DS18B20.c                       0x00000000   Number         0  ds18b20.o ABSOLUTE
    Hardware\Dth11.c                         0x00000000   Number         0  dth11.o ABSOLUTE
    Hardware\Esp8266.c                       0x00000000   Number         0  esp8266.o ABSOLUTE
    Hardware\HeatingCore.c                   0x00000000   Number         0  heatingcore.o ABSOLUTE
    Hardware\IC.c                            0x00000000   Number         0  ic.o ABSOLUTE
    Hardware\Key.c                           0x00000000   Number         0  key.o ABSOLUTE
    Hardware\LED.c                           0x00000000   Number         0  led.o ABSOLUTE
    Hardware\Motor.c                         0x00000000   Number         0  motor.o ABSOLUTE
    Hardware\MyI2C.c                         0x00000000   Number         0  myi2c.o ABSOLUTE
    Hardware\My_I2C.c                        0x00000000   Number         0  my_i2c.o ABSOLUTE
    Hardware\OLED.c                          0x00000000   Number         0  oled.o ABSOLUTE
    Hardware\OneWire.c                       0x00000000   Number         0  onewire.o ABSOLUTE
    Hardware\PWM.c                           0x00000000   Number         0  pwm.o ABSOLUTE
    Hardware\PhSensor.c                      0x00000000   Number         0  phsensor.o ABSOLUTE
    Hardware\Pump.c                          0x00000000   Number         0  pump.o ABSOLUTE
    Hardware\Serial.c                        0x00000000   Number         0  serial.o ABSOLUTE
    Hardware\SoilHumSensor.c                 0x00000000   Number         0  soilhumsensor.o ABSOLUTE
    Hardware\Valve1.c                        0x00000000   Number         0  valve1.o ABSOLUTE
    Hardware\Valve2.c                        0x00000000   Number         0  valve2.o ABSOLUTE
    Hardware\_28BYJ48.c                      0x00000000   Number         0  _28byj48.o ABSOLUTE
    Hardware\sgp30.c                         0x00000000   Number         0  sgp30.o ABSOLUTE
    Library\misc.c                           0x00000000   Number         0  misc.o ABSOLUTE
    Library\stm32f10x_adc.c                  0x00000000   Number         0  stm32f10x_adc.o ABSOLUTE
    Library\stm32f10x_bkp.c                  0x00000000   Number         0  stm32f10x_bkp.o ABSOLUTE
    Library\stm32f10x_can.c                  0x00000000   Number         0  stm32f10x_can.o ABSOLUTE
    Library\stm32f10x_cec.c                  0x00000000   Number         0  stm32f10x_cec.o ABSOLUTE
    Library\stm32f10x_crc.c                  0x00000000   Number         0  stm32f10x_crc.o ABSOLUTE
    Library\stm32f10x_dac.c                  0x00000000   Number         0  stm32f10x_dac.o ABSOLUTE
    Library\stm32f10x_dbgmcu.c               0x00000000   Number         0  stm32f10x_dbgmcu.o ABSOLUTE
    Library\stm32f10x_dma.c                  0x00000000   Number         0  stm32f10x_dma.o ABSOLUTE
    Library\stm32f10x_exti.c                 0x00000000   Number         0  stm32f10x_exti.o ABSOLUTE
    Library\stm32f10x_flash.c                0x00000000   Number         0  stm32f10x_flash.o ABSOLUTE
    Library\stm32f10x_fsmc.c                 0x00000000   Number         0  stm32f10x_fsmc.o ABSOLUTE
    Library\stm32f10x_gpio.c                 0x00000000   Number         0  stm32f10x_gpio.o ABSOLUTE
    Library\stm32f10x_i2c.c                  0x00000000   Number         0  stm32f10x_i2c.o ABSOLUTE
    Library\stm32f10x_iwdg.c                 0x00000000   Number         0  stm32f10x_iwdg.o ABSOLUTE
    Library\stm32f10x_pwr.c                  0x00000000   Number         0  stm32f10x_pwr.o ABSOLUTE
    Library\stm32f10x_rcc.c                  0x00000000   Number         0  stm32f10x_rcc.o ABSOLUTE
    Library\stm32f10x_rtc.c                  0x00000000   Number         0  stm32f10x_rtc.o ABSOLUTE
    Library\stm32f10x_sdio.c                 0x00000000   Number         0  stm32f10x_sdio.o ABSOLUTE
    Library\stm32f10x_spi.c                  0x00000000   Number         0  stm32f10x_spi.o ABSOLUTE
    Library\stm32f10x_tim.c                  0x00000000   Number         0  stm32f10x_tim.o ABSOLUTE
    Library\stm32f10x_usart.c                0x00000000   Number         0  stm32f10x_usart.o ABSOLUTE
    Library\stm32f10x_wwdg.c                 0x00000000   Number         0  stm32f10x_wwdg.o ABSOLUTE
    RTE\Data_Exchange\jansson_config.c       0x00000000   Number         0  jansson_config.o ABSOLUTE
    Start\\core_cm3.c                        0x00000000   Number         0  core_cm3.o ABSOLUTE
    Start\core_cm3.c                         0x00000000   Number         0  core_cm3.o ABSOLUTE
    Start\startup_stm32f10x_md.s             0x00000000   Number         0  startup_stm32f10x_md.o ABSOLUTE
    Start\system_stm32f10x.c                 0x00000000   Number         0  system_stm32f10x.o ABSOLUTE
    System\Delay.c                           0x00000000   Number         0  delay.o ABSOLUTE
    System\MyRtc.c                           0x00000000   Number         0  myrtc.o ABSOLUTE
    System\\sys.c                            0x00000000   Number         0  sys.o ABSOLUTE
    System\sys.c                             0x00000000   Number         0  sys.o ABSOLUTE
    User\InteractWithTcp.c                   0x00000000   Number         0  interactwithtcp.o ABSOLUTE
    User\main.c                              0x00000000   Number         0  main.o ABSOLUTE
    User\stm32f10x_it.c                      0x00000000   Number         0  stm32f10x_it.o ABSOLUTE
    cdcmple.s                                0x00000000   Number         0  cdcmple.o ABSOLUTE
    cdrcmple.s                               0x00000000   Number         0  cdrcmple.o ABSOLUTE
    cfcmple.s                                0x00000000   Number         0  cfcmple.o ABSOLUTE
    cfrcmple.s                               0x00000000   Number         0  cfrcmple.o ABSOLUTE
    dc.s                                     0x00000000   Number         0  dc.o ABSOLUTE
    handlers.s                               0x00000000   Number         0  handlers.o ABSOLUTE
    hashtable_seed.c                         0x00000000   Number         0  hashtable_seed.o ABSOLUTE
    init.s                                   0x00000000   Number         0  init.o ABSOLUTE
    RESET                                    0x08000000   Section      236  startup_stm32f10x_md.o(RESET)
    .ARM.Collect$$$$00000000                 0x080000ec   Section        0  entry.o(.ARM.Collect$$$$00000000)
    .ARM.Collect$$$$00000001                 0x080000ec   Section        4  entry2.o(.ARM.Collect$$$$00000001)
    .ARM.Collect$$$$00000004                 0x080000f0   Section        4  entry5.o(.ARM.Collect$$$$00000004)
    .ARM.Collect$$$$00000008                 0x080000f4   Section        0  entry7b.o(.ARM.Collect$$$$00000008)
    .ARM.Collect$$$$0000000A                 0x080000f4   Section        0  entry8b.o(.ARM.Collect$$$$0000000A)
    .ARM.Collect$$$$0000000B                 0x080000f4   Section        8  entry9a.o(.ARM.Collect$$$$0000000B)
    .ARM.Collect$$$$0000000D                 0x080000fc   Section        0  entry10a.o(.ARM.Collect$$$$0000000D)
    .ARM.Collect$$$$0000000F                 0x080000fc   Section        0  entry11a.o(.ARM.Collect$$$$0000000F)
    .ARM.Collect$$$$00002712                 0x080000fc   Section        4  entry2.o(.ARM.Collect$$$$00002712)
    __lit__00000000                          0x080000fc   Data           4  entry2.o(.ARM.Collect$$$$00002712)
    .text                                    0x08000100   Section       36  startup_stm32f10x_md.o(.text)
    .text                                    0x08000124   Section        0  uidiv.o(.text)
    .text                                    0x08000150   Section        0  mktime.o(.text)
    .text                                    0x080001f8   Section        0  memmovea.o(.text)
    .text                                    0x08000238   Section        0  memseta.o(.text)
    .text                                    0x0800025c   Section        0  strcat.o(.text)
    .text                                    0x08000274   Section        0  strstr.o(.text)
    .text                                    0x08000298   Section        0  strlen.o(.text)
    .text                                    0x080002a6   Section        0  strcmp.o(.text)
    .text                                    0x080002c2   Section        0  memchr.o(.text)
    .text                                    0x080002d6   Section        0  strcpy.o(.text)
    .text                                    0x080002e8   Section        0  strtoll.o(.text)
    .text                                    0x080002ec   Section        0  dadd.o(.text)
    .text                                    0x0800043a   Section        0  dmul.o(.text)
    .text                                    0x0800051e   Section        0  ddiv.o(.text)
    .text                                    0x080005fc   Section        0  dfixui.o(.text)
    .text                                    0x08000630   Section       48  cdcmple.o(.text)
    .text                                    0x08000660   Section       48  cdrcmple.o(.text)
    .text                                    0x08000690   Section        0  d2f.o(.text)
    .text                                    0x080006c8   Section       20  cfcmple.o(.text)
    .text                                    0x080006dc   Section       20  cfrcmple.o(.text)
    .text                                    0x080006f0   Section        0  uldiv.o(.text)
    .text                                    0x08000752   Section        0  llshl.o(.text)
    .text                                    0x08000770   Section        0  llushr.o(.text)
    .text                                    0x08000790   Section        0  llsshr.o(.text)
    .text                                    0x080007b4   Section        0  localtime_w.o(.text)
    .text                                    0x080007c0   Section        0  localtime_i.o(.text)
    .text                                    0x0800084c   Section        0  strtod.o(.text)
    _local_sscanf                            0x0800084d   Thumb Code    54  strtod.o(.text)
    .text                                    0x080008e8   Section        0  __strtoll.o(.text)
    .text                                    0x08000978   Section        0  fepilogue.o(.text)
    .text                                    0x08000978   Section        0  iusefp.o(.text)
    .text                                    0x080009e6   Section        0  depilogue.o(.text)
    .text                                    0x08000aa0   Section        0  dfixul.o(.text)
    .text                                    0x08000ad0   Section       36  init.o(.text)
    .text                                    0x08000af4   Section        0  ctype_o.o(.text)
    .text                                    0x08000afc   Section        0  isspace_o.o(.text)
    .text                                    0x08000b10   Section        0  scanf_fp.o(.text)
    _fp_value                                0x08000b11   Thumb Code   296  scanf_fp.o(.text)
    .text                                    0x08000e70   Section        0  _sgetc.o(.text)
    .text                                    0x08000eb0   Section        0  _strtoull.o(.text)
    .text                                    0x08000f72   Section        0  _chval.o(.text)
    .text                                    0x08000f8e   Section        0  dfltul.o(.text)
    i.BKP_ReadBackupRegister                 0x08000fa8   Section        0  stm32f10x_bkp.o(i.BKP_ReadBackupRegister)
    i.BKP_WriteBackupRegister                0x08000fc4   Section        0  stm32f10x_bkp.o(i.BKP_WriteBackupRegister)
    i.BusFault_Handler                       0x08000fe0   Section        0  stm32f10x_it.o(i.BusFault_Handler)
    i.ControlDevice                          0x08000fe4   Section        0  interactwithtcp.o(i.ControlDevice)
    i.DebugMon_Handler                       0x08001a1c   Section        0  stm32f10x_it.o(i.DebugMon_Handler)
    i.Delay_ms                               0x08001a1e   Section        0  delay.o(i.Delay_ms)
    i.Delay_s                                0x08001a36   Section        0  delay.o(i.Delay_s)
    i.Delay_us                               0x08001a4e   Section        0  delay.o(i.Delay_us)
    i.GPIO_Init                              0x08001a7c   Section        0  stm32f10x_gpio.o(i.GPIO_Init)
    i.GPIO_ResetBits                         0x08001b92   Section        0  stm32f10x_gpio.o(i.GPIO_ResetBits)
    i.GPIO_SetBits                           0x08001b96   Section        0  stm32f10x_gpio.o(i.GPIO_SetBits)
    i.GPIO_Write                             0x08001b9a   Section        0  stm32f10x_gpio.o(i.GPIO_Write)
    i.GPIO_WriteBit                          0x08001b9e   Section        0  stm32f10x_gpio.o(i.GPIO_WriteBit)
    i.HardFault_Handler                      0x08001ba8   Section        0  stm32f10x_it.o(i.HardFault_Handler)
    i.HeatingCore_Control                    0x08001bac   Section        0  heatingcore.o(i.HeatingCore_Control)
    i.LED_Control                            0x08001be0   Section        0  led.o(i.LED_Control)
    i.LED_SetStrength                        0x08001c30   Section        0  led.o(i.LED_SetStrength)
    i.MemManage_Handler                      0x08001c58   Section        0  stm32f10x_it.o(i.MemManage_Handler)
    i.Motor_Control                          0x08001c5c   Section        0  motor.o(i.Motor_Control)
    i.Motor_SetSpeed                         0x08001ce8   Section        0  motor.o(i.Motor_SetSpeed)
    i.MyRTC_Init                             0x08001d28   Section        0  myrtc.o(i.MyRTC_Init)
    i.MyRTC_ReadTime                         0x08001d98   Section        0  myrtc.o(i.MyRTC_ReadTime)
    i.MyRTC_SetTime                          0x08001de0   Section        0  myrtc.o(i.MyRTC_SetTime)
    i.NMI_Handler                            0x08001e2c   Section        0  stm32f10x_it.o(i.NMI_Handler)
    i.OLED_Clear                             0x08001e2e   Section        0  oled.o(i.OLED_Clear)
    i.OLED_I2C_Init                          0x08001e58   Section        0  oled.o(i.OLED_I2C_Init)
    i.OLED_I2C_SendByte                      0x08001ea8   Section        0  oled.o(i.OLED_I2C_SendByte)
    i.OLED_I2C_Start                         0x08001efc   Section        0  oled.o(i.OLED_I2C_Start)
    i.OLED_I2C_Stop                          0x08001f30   Section        0  oled.o(i.OLED_I2C_Stop)
    i.OLED_Init                              0x08001f58   Section        0  oled.o(i.OLED_Init)
    i.OLED_Pow                               0x08002006   Section        0  oled.o(i.OLED_Pow)
    i.OLED_SetCursor                         0x0800201a   Section        0  oled.o(i.OLED_SetCursor)
    i.OLED_ShowChar                          0x0800203c   Section        0  oled.o(i.OLED_ShowChar)
    i.OLED_ShowNum                           0x080020b0   Section        0  oled.o(i.OLED_ShowNum)
    i.OLED_ShowString                        0x080020f4   Section        0  oled.o(i.OLED_ShowString)
    i.OLED_WriteCommand                      0x0800211c   Section        0  oled.o(i.OLED_WriteCommand)
    i.OLED_WriteData                         0x0800213c   Section        0  oled.o(i.OLED_WriteData)
    i.PWM_SetCompare3                        0x0800215c   Section        0  pwm.o(i.PWM_SetCompare3)
    i.PWM_SetCompare4                        0x0800216c   Section        0  pwm.o(i.PWM_SetCompare4)
    i.PWR_BackupAccessCmd                    0x0800217c   Section        0  stm32f10x_pwr.o(i.PWR_BackupAccessCmd)
    i.PendSV_Handler                         0x08002188   Section        0  stm32f10x_it.o(i.PendSV_Handler)
    i.Pump_Control                           0x0800218c   Section        0  pump.o(i.Pump_Control)
    i.RCC_APB1PeriphClockCmd                 0x080021c0   Section        0  stm32f10x_rcc.o(i.RCC_APB1PeriphClockCmd)
    i.RCC_APB2PeriphClockCmd                 0x080021e0   Section        0  stm32f10x_rcc.o(i.RCC_APB2PeriphClockCmd)
    i.RCC_GetFlagStatus                      0x08002200   Section        0  stm32f10x_rcc.o(i.RCC_GetFlagStatus)
    i.RCC_LSEConfig                          0x0800223c   Section        0  stm32f10x_rcc.o(i.RCC_LSEConfig)
    i.RCC_RTCCLKCmd                          0x08002270   Section        0  stm32f10x_rcc.o(i.RCC_RTCCLKCmd)
    i.RCC_RTCCLKConfig                       0x0800227c   Section        0  stm32f10x_rcc.o(i.RCC_RTCCLKConfig)
    i.RTC_EnterConfigMode                    0x0800228c   Section        0  stm32f10x_rtc.o(i.RTC_EnterConfigMode)
    i.RTC_ExitConfigMode                     0x080022a0   Section        0  stm32f10x_rtc.o(i.RTC_ExitConfigMode)
    i.RTC_GetCounter                         0x080022b4   Section        0  stm32f10x_rtc.o(i.RTC_GetCounter)
    i.RTC_SetCounter                         0x080022c8   Section        0  stm32f10x_rtc.o(i.RTC_SetCounter)
    i.RTC_SetPrescaler                       0x080022e4   Section        0  stm32f10x_rtc.o(i.RTC_SetPrescaler)
    i.RTC_WaitForLastTask                    0x08002304   Section        0  stm32f10x_rtc.o(i.RTC_WaitForLastTask)
    i.RTC_WaitForSynchro                     0x08002318   Section        0  stm32f10x_rtc.o(i.RTC_WaitForSynchro)
    i.SVC_Handler                            0x0800233c   Section        0  stm32f10x_it.o(i.SVC_Handler)
    i.Serial_GetRxFlag                       0x08002340   Section        0  serial.o(i.Serial_GetRxFlag)
    i.Serial_OledShowString                  0x0800235c   Section        0  serial.o(i.Serial_OledShowString)
    i.Serial_RxFromEspBuf_Clear              0x080023a0   Section        0  serial.o(i.Serial_RxFromEspBuf_Clear)
    i.SetSysClock                            0x080023bc   Section        0  system_stm32f10x.o(i.SetSysClock)
    SetSysClock                              0x080023bd   Thumb Code     8  system_stm32f10x.o(i.SetSysClock)
    i.SetSysClockTo72                        0x080023c4   Section        0  system_stm32f10x.o(i.SetSysClockTo72)
    SetSysClockTo72                          0x080023c5   Thumb Code   214  system_stm32f10x.o(i.SetSysClockTo72)
    i.SteeperMotor_Control                   0x080024a4   Section        0  _28byj48.o(i.SteeperMotor_Control)
    i.SysTick_Handler                        0x080024d8   Section        0  stm32f10x_it.o(i.SysTick_Handler)
    i.SystemInit                             0x080024dc   Section        0  system_stm32f10x.o(i.SystemInit)
    i.TIM1_UP_IRQHandler                     0x0800253c   Section        0  _28byj48.o(i.TIM1_UP_IRQHandler)
    i.TIM3_IRQHandler                        0x08002610   Section        0  dth11.o(i.TIM3_IRQHandler)
    i.TIM_ClearITPendingBit                  0x08002650   Section        0  stm32f10x_tim.o(i.TIM_ClearITPendingBit)
    i.TIM_Cmd                                0x08002656   Section        0  stm32f10x_tim.o(i.TIM_Cmd)
    i.TIM_GetCapture1                        0x0800266e   Section        0  stm32f10x_tim.o(i.TIM_GetCapture1)
    i.TIM_GetITStatus                        0x08002674   Section        0  stm32f10x_tim.o(i.TIM_GetITStatus)
    i.TIM_SetAutoreload                      0x08002696   Section        0  stm32f10x_tim.o(i.TIM_SetAutoreload)
    i.TIM_SetCompare3                        0x0800269a   Section        0  stm32f10x_tim.o(i.TIM_SetCompare3)
    i.TIM_SetCompare4                        0x0800269e   Section        0  stm32f10x_tim.o(i.TIM_SetCompare4)
    i.USART1_IRQHandler                      0x080026a4   Section        0  serial.o(i.USART1_IRQHandler)
    i.USART_ClearITPendingBit                0x08002784   Section        0  stm32f10x_usart.o(i.USART_ClearITPendingBit)
    i.USART_GetITStatus                      0x080027a2   Section        0  stm32f10x_usart.o(i.USART_GetITStatus)
    i.USART_ReceiveData                      0x080027f6   Section        0  stm32f10x_usart.o(i.USART_ReceiveData)
    i.UsageFault_Handler                     0x08002800   Section        0  stm32f10x_it.o(i.UsageFault_Handler)
    i.Valve1_Control                         0x08002804   Section        0  valve1.o(i.Valve1_Control)
    i.Valve2_Control                         0x08002838   Section        0  valve2.o(i.Valve2_Control)
    i._28BYJ48Stop                           0x0800286c   Section        0  _28byj48.o(i._28BYJ48Stop)
    i._28BYJ48_Forward_Ration                0x08002894   Section        0  _28byj48.o(i._28BYJ48_Forward_Ration)
    i._28BYJ48_Reverse_Rotation              0x080028c4   Section        0  _28byj48.o(i._28BYJ48_Reverse_Rotation)
    i.__0snprintf                            0x080028f4   Section        0  printfa.o(i.__0snprintf)
    i.__0vsnprintf                           0x08002924   Section        0  printfa.o(i.__0vsnprintf)
    i.__ARM_common_switch8                   0x08002950   Section        0  dump.o(i.__ARM_common_switch8)
    i.__ARM_isinf                            0x0800296a   Section        0  value.o(i.__ARM_isinf)
    i.__ARM_isnan                            0x08002980   Section        0  value.o(i.__ARM_isnan)
    i.__aeabi_errno_addr                     0x08002998   Section        0  errno.o(i.__aeabi_errno_addr)
    i.__scatterload_copy                     0x080029a0   Section       14  handlers.o(i.__scatterload_copy)
    i.__scatterload_null                     0x080029ae   Section        2  handlers.o(i.__scatterload_null)
    i.__scatterload_zeroinit                 0x080029b0   Section       14  handlers.o(i.__scatterload_zeroinit)
    i._fp_digits                             0x080029c0   Section        0  printfa.o(i._fp_digits)
    _fp_digits                               0x080029c1   Thumb Code   366  printfa.o(i._fp_digits)
    i._is_digit                              0x08002b44   Section        0  scanf_fp.o(i._is_digit)
    i._printf_core                           0x08002b54   Section        0  printfa.o(i._printf_core)
    _printf_core                             0x08002b55   Thumb Code  1744  printfa.o(i._printf_core)
    i._printf_post_padding                   0x08003230   Section        0  printfa.o(i._printf_post_padding)
    _printf_post_padding                     0x08003231   Thumb Code    36  printfa.o(i._printf_post_padding)
    i._printf_pre_padding                    0x08003254   Section        0  printfa.o(i._printf_pre_padding)
    _printf_pre_padding                      0x08003255   Thumb Code    46  printfa.o(i._printf_pre_padding)
    i._snputc                                0x08003282   Section        0  printfa.o(i._snputc)
    _snputc                                  0x08003283   Thumb Code    22  printfa.o(i._snputc)
    i.array_copy                             0x08003298   Section        0  value.o(i.array_copy)
    array_copy                               0x08003299   Thumb Code    24  value.o(i.array_copy)
    i.bucket_is_empty                        0x080032b0   Section        0  hashtable.o(i.bucket_is_empty)
    bucket_is_empty                          0x080032b1   Thumb Code    22  hashtable.o(i.bucket_is_empty)
    i.decode_unicode_escape                  0x080032c6   Section        0  load.o(i.decode_unicode_escape)
    decode_unicode_escape                    0x080032c7   Thumb Code    76  load.o(i.decode_unicode_escape)
    i.error_set                              0x08003314   Section        0  load.o(i.error_set)
    error_set                                0x08003315   Thumb Code   150  load.o(i.error_set)
    i.free                                   0x080033d4   Section        0  malloc.o(i.free)
    i.hashlittle                             0x08003424   Section        0  hashtable.o(i.hashlittle)
    hashlittle                               0x08003425   Thumb Code   318  hashtable.o(i.hashlittle)
    i.hashtable_close                        0x08003568   Section        0  hashtable.o(i.hashtable_close)
    i.hashtable_do_clear                     0x08003578   Section        0  hashtable.o(i.hashtable_do_clear)
    hashtable_do_clear                       0x08003579   Thumb Code    34  hashtable.o(i.hashtable_do_clear)
    i.hashtable_do_rehash                    0x0800359a   Section        0  hashtable.o(i.hashtable_do_rehash)
    hashtable_do_rehash                      0x0800359b   Thumb Code   118  hashtable.o(i.hashtable_do_rehash)
    i.hashtable_find_pair                    0x08003610   Section        0  hashtable.o(i.hashtable_find_pair)
    hashtable_find_pair                      0x08003611   Thumb Code    60  hashtable.o(i.hashtable_find_pair)
    i.hashtable_get                          0x0800364c   Section        0  hashtable.o(i.hashtable_get)
    i.hashtable_init                         0x0800368c   Section        0  hashtable.o(i.hashtable_init)
    i.hashtable_iter                         0x080036d4   Section        0  hashtable.o(i.hashtable_iter)
    i.hashtable_iter_key                     0x080036e0   Section        0  hashtable.o(i.hashtable_iter_key)
    i.hashtable_iter_next                    0x080036e4   Section        0  hashtable.o(i.hashtable_iter_next)
    i.hashtable_iter_value                   0x080036f2   Section        0  hashtable.o(i.hashtable_iter_value)
    i.hashtable_set                          0x080036f8   Section        0  hashtable.o(i.hashtable_set)
    i.insert_to_bucket                       0x080037a4   Section        0  hashtable.o(i.insert_to_bucket)
    insert_to_bucket                         0x080037a5   Thumb Code    42  hashtable.o(i.insert_to_bucket)
    i.json_array                             0x080037ce   Section        0  value.o(i.json_array)
    i.json_array_append_new                  0x08003804   Section        0  value.o(i.json_array_append_new)
    i.json_array_grow                        0x0800384c   Section        0  value.o(i.json_array_grow)
    json_array_grow                          0x0800384d   Thumb Code    76  value.o(i.json_array_grow)
    i.json_decref                            0x08003898   Section        0  interactwithtcp.o(i.json_decref)
    json_decref                              0x08003899   Thumb Code    28  interactwithtcp.o(i.json_decref)
    i.json_decref                            0x080038b4   Section        0  load.o(i.json_decref)
    json_decref                              0x080038b5   Thumb Code    24  load.o(i.json_decref)
    i.json_decref                            0x080038cc   Section        0  value.o(i.json_decref)
    json_decref                              0x080038cd   Thumb Code    24  value.o(i.json_decref)
    i.json_decref                            0x080038e4   Section        0  hashtable.o(i.json_decref)
    json_decref                              0x080038e5   Thumb Code    24  hashtable.o(i.json_decref)
    i.json_delete                            0x080038fc   Section        0  value.o(i.json_delete)
    i.json_false                             0x08003950   Section        0  value.o(i.json_false)
    i.json_incref                            0x08003958   Section        0  load.o(i.json_incref)
    json_incref                              0x08003959   Thumb Code    16  load.o(i.json_incref)
    i.json_integer                           0x08003968   Section        0  value.o(i.json_integer)
    i.json_integer_value                     0x08003984   Section        0  value.o(i.json_integer_value)
    i.json_loads                             0x0800399c   Section        0  load.o(i.json_loads)
    i.json_null                              0x08003a10   Section        0  value.o(i.json_null)
    i.json_object                            0x08003a18   Section        0  value.o(i.json_object)
    i.json_object_get                        0x08003a64   Section        0  value.o(i.json_object_get)
    i.json_object_iter                       0x08003a80   Section        0  value.o(i.json_object_iter)
    i.json_object_iter_key                   0x08003a98   Section        0  value.o(i.json_object_iter_key)
    i.json_object_iter_next                  0x08003aa4   Section        0  value.o(i.json_object_iter_next)
    i.json_object_iter_value                 0x08003ac0   Section        0  value.o(i.json_object_iter_value)
    i.json_object_seed                       0x08003acc   Section        0  hashtable_seed.o(i.json_object_seed)
    i.json_object_set_new_nocheck            0x08003af4   Section        0  value.o(i.json_object_set_new_nocheck)
    i.json_real                              0x08003b34   Section        0  value.o(i.json_real)
    i.json_real_value                        0x08003b68   Section        0  value.o(i.json_real_value)
    i.json_string_value                      0x08003b80   Section        0  value.o(i.json_string_value)
    i.json_true                              0x08003b94   Section        0  value.o(i.json_true)
    i.jsonp_error_init                       0x08003b9c   Section        0  error.o(i.jsonp_error_init)
    i.jsonp_error_set                        0x08003bbe   Section        0  error.o(i.jsonp_error_set)
    i.jsonp_error_set_source                 0x08003bd0   Section        0  error.o(i.jsonp_error_set_source)
    i.jsonp_error_vset                       0x08003c0c   Section        0  error.o(i.jsonp_error_vset)
    i.jsonp_free                             0x08003c38   Section        0  memory.o(i.jsonp_free)
    i.jsonp_malloc                           0x08003c48   Section        0  memory.o(i.jsonp_malloc)
    i.jsonp_stringn_nocheck_own              0x08003c58   Section        0  value.o(i.jsonp_stringn_nocheck_own)
    i.jsonp_strndup                          0x08003c62   Section        0  memory.o(i.jsonp_strndup)
    i.jsonp_strtod                           0x08003c88   Section        0  strconv.o(i.jsonp_strtod)
    i.lex_close                              0x08003cec   Section        0  load.o(i.lex_close)
    lex_close                                0x08003ced   Thumb Code    28  load.o(i.lex_close)
    i.lex_free_string                        0x08003d08   Section        0  load.o(i.lex_free_string)
    lex_free_string                          0x08003d09   Thumb Code    18  load.o(i.lex_free_string)
    i.lex_get                                0x08003d1a   Section        0  load.o(i.lex_get)
    lex_get                                  0x08003d1b   Thumb Code     8  load.o(i.lex_get)
    i.lex_get_save                           0x08003d22   Section        0  load.o(i.lex_get_save)
    lex_get_save                             0x08003d23   Thumb Code    30  load.o(i.lex_get_save)
    i.lex_init                               0x08003d40   Section        0  load.o(i.lex_init)
    lex_init                                 0x08003d41   Thumb Code    44  load.o(i.lex_init)
    i.lex_save                               0x08003d70   Section        0  load.o(i.lex_save)
    lex_save                                 0x08003d71   Thumb Code    12  load.o(i.lex_save)
    i.lex_scan                               0x08003d7c   Section        0  load.o(i.lex_scan)
    lex_scan                                 0x08003d7d   Thumb Code   284  load.o(i.lex_scan)
    i.lex_scan_number                        0x08003eb4   Section        0  load.o(i.lex_scan_number)
    lex_scan_number                          0x08003eb5   Thumb Code   328  load.o(i.lex_scan_number)
    i.lex_scan_string                        0x08004040   Section        0  load.o(i.lex_scan_string)
    lex_scan_string                          0x08004041   Thumb Code   464  load.o(i.lex_scan_string)
    i.lex_unget_unsave                       0x080042c8   Section        0  load.o(i.lex_unget_unsave)
    lex_unget_unsave                         0x080042c9   Thumb Code    38  load.o(i.lex_unget_unsave)
    i.list_insert                            0x080042ee   Section        0  hashtable.o(i.list_insert)
    list_insert                              0x080042ef   Thumb Code    14  hashtable.o(i.list_insert)
    i.main                                   0x080042fc   Section        0  main.o(i.main)
    i.malloc                                 0x08004358   Section        0  malloc.o(i.malloc)
    i.parse_array                            0x080043c4   Section        0  load.o(i.parse_array)
    parse_array                              0x080043c5   Thumb Code   130  load.o(i.parse_array)
    i.parse_json                             0x08004458   Section        0  load.o(i.parse_json)
    parse_json                               0x08004459   Thumb Code   104  load.o(i.parse_json)
    i.parse_object                           0x080044ec   Section        0  load.o(i.parse_object)
    parse_object                             0x080044ed   Thumb Code   264  load.o(i.parse_object)
    i.parse_value                            0x0800466c   Section        0  load.o(i.parse_value)
    parse_value                              0x0800466d   Thumb Code   210  load.o(i.parse_value)
    i.seed_from_timestamp_and_pid            0x080047ac   Section        0  jansson_config.o(i.seed_from_timestamp_and_pid)
    i.strbuffer_append_byte                  0x080047b2   Section        0  strbuffer.o(i.strbuffer_append_byte)
    i.strbuffer_append_bytes                 0x080047c0   Section        0  strbuffer.o(i.strbuffer_append_bytes)
    i.strbuffer_clear                        0x08004830   Section        0  strbuffer.o(i.strbuffer_clear)
    i.strbuffer_close                        0x0800483a   Section        0  strbuffer.o(i.strbuffer_close)
    i.strbuffer_init                         0x08004852   Section        0  strbuffer.o(i.strbuffer_init)
    i.strbuffer_pop                          0x08004874   Section        0  strbuffer.o(i.strbuffer_pop)
    i.strbuffer_value                        0x0800488c   Section        0  strbuffer.o(i.strbuffer_value)
    i.stream_get                             0x08004890   Section        0  load.o(i.stream_get)
    stream_get                               0x08004891   Thumb Code   200  load.o(i.stream_get)
    i.stream_unget                           0x08004974   Section        0  load.o(i.stream_unget)
    stream_unget                             0x08004975   Thumb Code    74  load.o(i.stream_unget)
    i.string_create                          0x080049be   Section        0  value.o(i.string_create)
    string_create                            0x080049bf   Thumb Code    62  value.o(i.string_create)
    i.string_get                             0x080049fc   Section        0  load.o(i.string_get)
    string_get                               0x080049fd   Thumb Code    24  load.o(i.string_get)
    i.strtod                                 0x08004a14   Section        0  strtod.o(i.strtod)
    i.utf8_check_first                       0x08004a30   Section        0  utf.o(i.utf8_check_first)
    i.utf8_check_full                        0x08004a6c   Section        0  utf.o(i.utf8_check_full)
    i.utf8_encode                            0x08004af4   Section        0  utf.o(i.utf8_encode)
    .constdata                               0x08004b70   Section     1520  oled.o(.constdata)
    .constdata                               0x08005160   Section       32  _28byj48.o(.constdata)
    .constdata                               0x08005180   Section       12  mktime.o(.constdata)
    monlen                                   0x08005180   Data          12  mktime.o(.constdata)
    .constdata                               0x0800518c   Section       12  localtime_i.o(.constdata)
    monlen                                   0x0800518c   Data          12  localtime_i.o(.constdata)
    .constdata                               0x08005198   Section      129  ctype_o.o(.constdata)
    .constdata                               0x0800521c   Section        4  ctype_o.o(.constdata)
    table                                    0x0800521c   Data           4  ctype_o.o(.constdata)
    .data                                    0x20000000   Section       12  myrtc.o(.data)
    .data                                    0x2000000c   Section        2  led.o(.data)
    .data                                    0x2000000e   Section        5  serial.o(.data)
    Rx_State                                 0x20000012   Data           1  serial.o(.data)
    .data                                    0x20000014   Section       18  dth11.o(.data)
    .data                                    0x20000026   Section        2  motor.o(.data)
    .data                                    0x20000028   Section        6  sgp30.o(.data)
    .data                                    0x20000030   Section        6  phsensor.o(.data)
    .data                                    0x20000038   Section        8  ds18b20.o(.data)
    .data                                    0x20000040   Section        6  bh1750.o(.data)
    .data                                    0x20000048   Section        6  soilhumsensor.o(.data)
    .data                                    0x2000004e   Section        1  pump.o(.data)
    .data                                    0x2000004f   Section        2  valve1.o(.data)
    .data                                    0x20000051   Section        2  heatingcore.o(.data)
    .data                                    0x20000053   Section        2  valve2.o(.data)
    .data                                    0x20000056   Section        7  _28byj48.o(.data)
    i                                        0x2000005c   Data           1  _28byj48.o(.data)
    .data                                    0x20000060   Section       76  interactwithtcp.o(.data)
    .data                                    0x200000ac   Section       24  value.o(.data)
    the_true                                 0x200000ac   Data           8  value.o(.data)
    the_false                                0x200000b4   Data           8  value.o(.data)
    the_null                                 0x200000bc   Data           8  value.o(.data)
    .data                                    0x200000c4   Section        8  memory.o(.data)
    do_malloc                                0x200000c4   Data           4  memory.o(.data)
    do_free                                  0x200000c8   Data           4  memory.o(.data)
    .data                                    0x200000cc   Section        4  hashtable_seed.o(.data)
    .data                                    0x200000d0   Section        4  errno.o(.data)
    _errno                                   0x200000d0   Data           4  errno.o(.data)
    .data                                    0x200000d4   Section        4  mvars.o(.data)
    .data                                    0x200000d8   Section        4  mvars.o(.data)
    .bss                                     0x200000dc   Section     1000  serial.o(.bss)
    .bss                                     0x200004c4   Section       83  dth11.o(.bss)
    .bss                                     0x20000518   Section       44  localtime_w.o(.bss)
    _tms                                     0x20000518   Data          44  localtime_w.o(.bss)
    HEAP                                     0x20000548   Section     3000  startup_stm32f10x_md.o(HEAP)
    STACK                                    0x20001100   Section     1024  startup_stm32f10x_md.o(STACK)

    Global Symbols

    Symbol Name                              Value     Ov Type        Size  Object(Section)

    BuildAttributes$$THM_ISAv4$P$D$K$B$S$PE$A:L22UL41UL21$X:L11$S22US41US21$IEEE1$IW$USESV6$~STKCKD$USESV7$~SHL$OTIME$ROPI$IEEEJ$EBA8$MICROLIB$REQ8$PRES8$EABIv2 0x00000000   Number         0  anon$$obj.o ABSOLUTE
    __ARM_use_no_argv                        0x00000000   Number         0  main.o ABSOLUTE
    _printf_a                                0x00000000   Number         0  stubs.o ABSOLUTE
    _printf_c                                0x00000000   Number         0  stubs.o ABSOLUTE
    _printf_charcount                        0x00000000   Number         0  stubs.o ABSOLUTE
    _printf_d                                0x00000000   Number         0  stubs.o ABSOLUTE
    _printf_e                                0x00000000   Number         0  stubs.o ABSOLUTE
    _printf_f                                0x00000000   Number         0  stubs.o ABSOLUTE
    _printf_flags                            0x00000000   Number         0  stubs.o ABSOLUTE
    _printf_fp_dec                           0x00000000   Number         0  stubs.o ABSOLUTE
    _printf_fp_hex                           0x00000000   Number         0  stubs.o ABSOLUTE
    _printf_g                                0x00000000   Number         0  stubs.o ABSOLUTE
    _printf_i                                0x00000000   Number         0  stubs.o ABSOLUTE
    _printf_int_dec                          0x00000000   Number         0  stubs.o ABSOLUTE
    _printf_l                                0x00000000   Number         0  stubs.o ABSOLUTE
    _printf_lc                               0x00000000   Number         0  stubs.o ABSOLUTE
    _printf_ll                               0x00000000   Number         0  stubs.o ABSOLUTE
    _printf_lld                              0x00000000   Number         0  stubs.o ABSOLUTE
    _printf_lli                              0x00000000   Number         0  stubs.o ABSOLUTE
    _printf_llo                              0x00000000   Number         0  stubs.o ABSOLUTE
    _printf_llu                              0x00000000   Number         0  stubs.o ABSOLUTE
    _printf_llx                              0x00000000   Number         0  stubs.o ABSOLUTE
    _printf_longlong_dec                     0x00000000   Number         0  stubs.o ABSOLUTE
    _printf_longlong_hex                     0x00000000   Number         0  stubs.o ABSOLUTE
    _printf_longlong_oct                     0x00000000   Number         0  stubs.o ABSOLUTE
    _printf_ls                               0x00000000   Number         0  stubs.o ABSOLUTE
    _printf_mbtowc                           0x00000000   Number         0  stubs.o ABSOLUTE
    _printf_n                                0x00000000   Number         0  stubs.o ABSOLUTE
    _printf_o                                0x00000000   Number         0  stubs.o ABSOLUTE
    _printf_p                                0x00000000   Number         0  stubs.o ABSOLUTE
    _printf_percent                          0x00000000   Number         0  stubs.o ABSOLUTE
    _printf_pre_padding                      0x00000000   Number         0  stubs.o ABSOLUTE
    _printf_return_value                     0x00000000   Number         0  stubs.o ABSOLUTE
    _printf_s                                0x00000000   Number         0  stubs.o ABSOLUTE
    _printf_sizespec                         0x00000000   Number         0  stubs.o ABSOLUTE
    _printf_str                              0x00000000   Number         0  stubs.o ABSOLUTE
    _printf_truncate_signed                  0x00000000   Number         0  stubs.o ABSOLUTE
    _printf_truncate_unsigned                0x00000000   Number         0  stubs.o ABSOLUTE
    _printf_u                                0x00000000   Number         0  stubs.o ABSOLUTE
    _printf_wc                               0x00000000   Number         0  stubs.o ABSOLUTE
    _printf_wctomb                           0x00000000   Number         0  stubs.o ABSOLUTE
    _printf_widthprec                        0x00000000   Number         0  stubs.o ABSOLUTE
    _printf_x                                0x00000000   Number         0  stubs.o ABSOLUTE
    __cpp_initialize__aeabi_                  - Undefined Weak Reference
    __cxa_finalize                            - Undefined Weak Reference
    __decompress                              - Undefined Weak Reference
    _clock_init                               - Undefined Weak Reference
    _microlib_exit                            - Undefined Weak Reference
    __Vectors_Size                           0x000000ec   Number         0  startup_stm32f10x_md.o ABSOLUTE
    __Vectors                                0x08000000   Data           4  startup_stm32f10x_md.o(RESET)
    __Vectors_End                            0x080000ec   Data           0  startup_stm32f10x_md.o(RESET)
    __main                                   0x080000ed   Thumb Code     0  entry.o(.ARM.Collect$$$$00000000)
    _main_stk                                0x080000ed   Thumb Code     0  entry2.o(.ARM.Collect$$$$00000001)
    _main_scatterload                        0x080000f1   Thumb Code     0  entry5.o(.ARM.Collect$$$$00000004)
    __main_after_scatterload                 0x080000f5   Thumb Code     0  entry5.o(.ARM.Collect$$$$00000004)
    _main_clock                              0x080000f5   Thumb Code     0  entry7b.o(.ARM.Collect$$$$00000008)
    _main_cpp_init                           0x080000f5   Thumb Code     0  entry8b.o(.ARM.Collect$$$$0000000A)
    _main_init                               0x080000f5   Thumb Code     0  entry9a.o(.ARM.Collect$$$$0000000B)
    __rt_final_cpp                           0x080000fd   Thumb Code     0  entry10a.o(.ARM.Collect$$$$0000000D)
    __rt_final_exit                          0x080000fd   Thumb Code     0  entry11a.o(.ARM.Collect$$$$0000000F)
    Reset_Handler                            0x08000101   Thumb Code     8  startup_stm32f10x_md.o(.text)
    ADC1_2_IRQHandler                        0x0800011b   Thumb Code     0  startup_stm32f10x_md.o(.text)
    CAN1_RX1_IRQHandler                      0x0800011b   Thumb Code     0  startup_stm32f10x_md.o(.text)
    CAN1_SCE_IRQHandler                      0x0800011b   Thumb Code     0  startup_stm32f10x_md.o(.text)
    DMA1_Channel1_IRQHandler                 0x0800011b   Thumb Code     0  startup_stm32f10x_md.o(.text)
    DMA1_Channel2_IRQHandler                 0x0800011b   Thumb Code     0  startup_stm32f10x_md.o(.text)
    DMA1_Channel3_IRQHandler                 0x0800011b   Thumb Code     0  startup_stm32f10x_md.o(.text)
    DMA1_Channel4_IRQHandler                 0x0800011b   Thumb Code     0  startup_stm32f10x_md.o(.text)
    DMA1_Channel5_IRQHandler                 0x0800011b   Thumb Code     0  startup_stm32f10x_md.o(.text)
    DMA1_Channel6_IRQHandler                 0x0800011b   Thumb Code     0  startup_stm32f10x_md.o(.text)
    DMA1_Channel7_IRQHandler                 0x0800011b   Thumb Code     0  startup_stm32f10x_md.o(.text)
    EXTI0_IRQHandler                         0x0800011b   Thumb Code     0  startup_stm32f10x_md.o(.text)
    EXTI15_10_IRQHandler                     0x0800011b   Thumb Code     0  startup_stm32f10x_md.o(.text)
    EXTI1_IRQHandler                         0x0800011b   Thumb Code     0  startup_stm32f10x_md.o(.text)
    EXTI2_IRQHandler                         0x0800011b   Thumb Code     0  startup_stm32f10x_md.o(.text)
    EXTI3_IRQHandler                         0x0800011b   Thumb Code     0  startup_stm32f10x_md.o(.text)
    EXTI4_IRQHandler                         0x0800011b   Thumb Code     0  startup_stm32f10x_md.o(.text)
    EXTI9_5_IRQHandler                       0x0800011b   Thumb Code     0  startup_stm32f10x_md.o(.text)
    FLASH_IRQHandler                         0x0800011b   Thumb Code     0  startup_stm32f10x_md.o(.text)
    I2C1_ER_IRQHandler                       0x0800011b   Thumb Code     0  startup_stm32f10x_md.o(.text)
    I2C1_EV_IRQHandler                       0x0800011b   Thumb Code     0  startup_stm32f10x_md.o(.text)
    I2C2_ER_IRQHandler                       0x0800011b   Thumb Code     0  startup_stm32f10x_md.o(.text)
    I2C2_EV_IRQHandler                       0x0800011b   Thumb Code     0  startup_stm32f10x_md.o(.text)
    PVD_IRQHandler                           0x0800011b   Thumb Code     0  startup_stm32f10x_md.o(.text)
    RCC_IRQHandler                           0x0800011b   Thumb Code     0  startup_stm32f10x_md.o(.text)
    RTCAlarm_IRQHandler                      0x0800011b   Thumb Code     0  startup_stm32f10x_md.o(.text)
    RTC_IRQHandler                           0x0800011b   Thumb Code     0  startup_stm32f10x_md.o(.text)
    SPI1_IRQHandler                          0x0800011b   Thumb Code     0  startup_stm32f10x_md.o(.text)
    SPI2_IRQHandler                          0x0800011b   Thumb Code     0  startup_stm32f10x_md.o(.text)
    TAMPER_IRQHandler                        0x0800011b   Thumb Code     0  startup_stm32f10x_md.o(.text)
    TIM1_BRK_IRQHandler                      0x0800011b   Thumb Code     0  startup_stm32f10x_md.o(.text)
    TIM1_CC_IRQHandler                       0x0800011b   Thumb Code     0  startup_stm32f10x_md.o(.text)
    TIM1_TRG_COM_IRQHandler                  0x0800011b   Thumb Code     0  startup_stm32f10x_md.o(.text)
    TIM2_IRQHandler                          0x0800011b   Thumb Code     0  startup_stm32f10x_md.o(.text)
    TIM4_IRQHandler                          0x0800011b   Thumb Code     0  startup_stm32f10x_md.o(.text)
    USART2_IRQHandler                        0x0800011b   Thumb Code     0  startup_stm32f10x_md.o(.text)
    USART3_IRQHandler                        0x0800011b   Thumb Code     0  startup_stm32f10x_md.o(.text)
    USBWakeUp_IRQHandler                     0x0800011b   Thumb Code     0  startup_stm32f10x_md.o(.text)
    USB_HP_CAN1_TX_IRQHandler                0x0800011b   Thumb Code     0  startup_stm32f10x_md.o(.text)
    USB_LP_CAN1_RX0_IRQHandler               0x0800011b   Thumb Code     0  startup_stm32f10x_md.o(.text)
    WWDG_IRQHandler                          0x0800011b   Thumb Code     0  startup_stm32f10x_md.o(.text)
    __aeabi_uidiv                            0x08000125   Thumb Code     0  uidiv.o(.text)
    __aeabi_uidivmod                         0x08000125   Thumb Code    44  uidiv.o(.text)
    mktime                                   0x08000151   Thumb Code   150  mktime.o(.text)
    ___aeabi_memcpy8$move                    0x080001f9   Thumb Code     0  memmovea.o(.text)
    __aeabi_memcpy                           0x080001f9   Thumb Code    64  memmovea.o(.text)
    __aeabi_memcpy4                          0x080001f9   Thumb Code     0  memmovea.o(.text)
    __aeabi_memmove                          0x080001f9   Thumb Code     0  memmovea.o(.text)
    __aeabi_memmove4                         0x080001f9   Thumb Code     0  memmovea.o(.text)
    __aeabi_memmove8                         0x080001f9   Thumb Code     0  memmovea.o(.text)
    __aeabi_memset                           0x08000239   Thumb Code    14  memseta.o(.text)
    __aeabi_memset4                          0x08000239   Thumb Code     0  memseta.o(.text)
    __aeabi_memset8                          0x08000239   Thumb Code     0  memseta.o(.text)
    __aeabi_memclr                           0x08000247   Thumb Code     4  memseta.o(.text)
    __aeabi_memclr4                          0x08000247   Thumb Code     0  memseta.o(.text)
    __aeabi_memclr8                          0x08000247   Thumb Code     0  memseta.o(.text)
    _memset$wrapper                          0x0800024b   Thumb Code    18  memseta.o(.text)
    strcat                                   0x0800025d   Thumb Code    24  strcat.o(.text)
    strstr                                   0x08000275   Thumb Code    36  strstr.o(.text)
    strlen                                   0x08000299   Thumb Code    14  strlen.o(.text)
    strcmp                                   0x080002a7   Thumb Code    28  strcmp.o(.text)
    memchr                                   0x080002c3   Thumb Code    20  memchr.o(.text)
    strcpy                                   0x080002d7   Thumb Code    18  strcpy.o(.text)
    strtoll                                  0x080002e9   Thumb Code     4  strtoll.o(.text)
    __aeabi_dadd                             0x080002ed   Thumb Code   322  dadd.o(.text)
    __aeabi_dsub                             0x0800042f   Thumb Code     6  dadd.o(.text)
    __aeabi_drsub                            0x08000435   Thumb Code     6  dadd.o(.text)
    __aeabi_dmul                             0x0800043b   Thumb Code   228  dmul.o(.text)
    __aeabi_ddiv                             0x0800051f   Thumb Code   222  ddiv.o(.text)
    __aeabi_d2uiz                            0x080005fd   Thumb Code    50  dfixui.o(.text)
    __aeabi_cdcmpeq                          0x08000631   Thumb Code     0  cdcmple.o(.text)
    __aeabi_cdcmple                          0x08000631   Thumb Code    48  cdcmple.o(.text)
    __aeabi_cdrcmple                         0x08000661   Thumb Code    48  cdrcmple.o(.text)
    __aeabi_d2f                              0x08000691   Thumb Code    56  d2f.o(.text)
    __aeabi_cfcmpeq                          0x080006c9   Thumb Code     0  cfcmple.o(.text)
    __aeabi_cfcmple                          0x080006c9   Thumb Code    20  cfcmple.o(.text)
    __aeabi_cfrcmple                         0x080006dd   Thumb Code    20  cfrcmple.o(.text)
    __aeabi_uldivmod                         0x080006f1   Thumb Code    98  uldiv.o(.text)
    __aeabi_llsl                             0x08000753   Thumb Code    30  llshl.o(.text)
    _ll_shift_l                              0x08000753   Thumb Code     0  llshl.o(.text)
    __aeabi_llsr                             0x08000771   Thumb Code    32  llushr.o(.text)
    _ll_ushift_r                             0x08000771   Thumb Code     0  llushr.o(.text)
    __aeabi_lasr                             0x08000791   Thumb Code    36  llsshr.o(.text)
    _ll_sshift_r                             0x08000791   Thumb Code     0  llsshr.o(.text)
    localtime                                0x080007b5   Thumb Code     6  localtime_w.o(.text)
    _localtime                               0x080007c1   Thumb Code   134  localtime_i.o(.text)
    __strtod_int                             0x08000883   Thumb Code    90  strtod.o(.text)
    __strtoll                                0x080008e9   Thumb Code   144  __strtoll.o(.text)
    __I$use$fp                               0x08000979   Thumb Code     0  iusefp.o(.text)
    _float_round                             0x08000979   Thumb Code    18  fepilogue.o(.text)
    _float_epilogue                          0x0800098b   Thumb Code    92  fepilogue.o(.text)
    _double_round                            0x080009e7   Thumb Code    30  depilogue.o(.text)
    _double_epilogue                         0x08000a05   Thumb Code   156  depilogue.o(.text)
    __aeabi_d2ulz                            0x08000aa1   Thumb Code    48  dfixul.o(.text)
    __scatterload                            0x08000ad1   Thumb Code    28  init.o(.text)
    __scatterload_rt2                        0x08000ad1   Thumb Code     0  init.o(.text)
    __rt_ctype_table                         0x08000af5   Thumb Code     4  ctype_o.o(.text)
    isspace                                  0x08000afd   Thumb Code    18  isspace_o.o(.text)
    _scanf_real                              0x08000c39   Thumb Code     0  scanf_fp.o(.text)
    _scanf_really_real                       0x08000c39   Thumb Code   556  scanf_fp.o(.text)
    _sgetc                                   0x08000e71   Thumb Code    30  _sgetc.o(.text)
    _sbackspace                              0x08000e8f   Thumb Code    34  _sgetc.o(.text)
    _strtoull                                0x08000eb1   Thumb Code   194  _strtoull.o(.text)
    _chval                                   0x08000f73   Thumb Code    28  _chval.o(.text)
    __aeabi_ul2d                             0x08000f8f   Thumb Code    24  dfltul.o(.text)
    BKP_ReadBackupRegister                   0x08000fa9   Thumb Code    24  stm32f10x_bkp.o(i.BKP_ReadBackupRegister)
    BKP_WriteBackupRegister                  0x08000fc5   Thumb Code    22  stm32f10x_bkp.o(i.BKP_WriteBackupRegister)
    BusFault_Handler                         0x08000fe1   Thumb Code     4  stm32f10x_it.o(i.BusFault_Handler)
    ControlDevice                            0x08000fe5   Thumb Code  2408  interactwithtcp.o(i.ControlDevice)
    DebugMon_Handler                         0x08001a1d   Thumb Code     2  stm32f10x_it.o(i.DebugMon_Handler)
    Delay_ms                                 0x08001a1f   Thumb Code    24  delay.o(i.Delay_ms)
    Delay_s                                  0x08001a37   Thumb Code    24  delay.o(i.Delay_s)
    Delay_us                                 0x08001a4f   Thumb Code    46  delay.o(i.Delay_us)
    GPIO_Init                                0x08001a7d   Thumb Code   278  stm32f10x_gpio.o(i.GPIO_Init)
    GPIO_ResetBits                           0x08001b93   Thumb Code     4  stm32f10x_gpio.o(i.GPIO_ResetBits)
    GPIO_SetBits                             0x08001b97   Thumb Code     4  stm32f10x_gpio.o(i.GPIO_SetBits)
    GPIO_Write                               0x08001b9b   Thumb Code     4  stm32f10x_gpio.o(i.GPIO_Write)
    GPIO_WriteBit                            0x08001b9f   Thumb Code    10  stm32f10x_gpio.o(i.GPIO_WriteBit)
    HardFault_Handler                        0x08001ba9   Thumb Code     4  stm32f10x_it.o(i.HardFault_Handler)
    HeatingCore_Control                      0x08001bad   Thumb Code    42  heatingcore.o(i.HeatingCore_Control)
    LED_Control                              0x08001be1   Thumb Code    74  led.o(i.LED_Control)
    LED_SetStrength                          0x08001c31   Thumb Code    30  led.o(i.LED_SetStrength)
    MemManage_Handler                        0x08001c59   Thumb Code     4  stm32f10x_it.o(i.MemManage_Handler)
    Motor_Control                            0x08001c5d   Thumb Code   134  motor.o(i.Motor_Control)
    Motor_SetSpeed                           0x08001ce9   Thumb Code    54  motor.o(i.Motor_SetSpeed)
    MyRTC_Init                               0x08001d29   Thumb Code   112  myrtc.o(i.MyRTC_Init)
    MyRTC_ReadTime                           0x08001d99   Thumb Code    68  myrtc.o(i.MyRTC_ReadTime)
    MyRTC_SetTime                            0x08001de1   Thumb Code    70  myrtc.o(i.MyRTC_SetTime)
    NMI_Handler                              0x08001e2d   Thumb Code     2  stm32f10x_it.o(i.NMI_Handler)
    OLED_Clear                               0x08001e2f   Thumb Code    42  oled.o(i.OLED_Clear)
    OLED_I2C_Init                            0x08001e59   Thumb Code    76  oled.o(i.OLED_I2C_Init)
    OLED_I2C_SendByte                        0x08001ea9   Thumb Code    80  oled.o(i.OLED_I2C_SendByte)
    OLED_I2C_Start                           0x08001efd   Thumb Code    48  oled.o(i.OLED_I2C_Start)
    OLED_I2C_Stop                            0x08001f31   Thumb Code    36  oled.o(i.OLED_I2C_Stop)
    OLED_Init                                0x08001f59   Thumb Code   174  oled.o(i.OLED_Init)
    OLED_Pow                                 0x08002007   Thumb Code    20  oled.o(i.OLED_Pow)
    OLED_SetCursor                           0x0800201b   Thumb Code    34  oled.o(i.OLED_SetCursor)
    OLED_ShowChar                            0x0800203d   Thumb Code   110  oled.o(i.OLED_ShowChar)
    OLED_ShowNum                             0x080020b1   Thumb Code    68  oled.o(i.OLED_ShowNum)
    OLED_ShowString                          0x080020f5   Thumb Code    40  oled.o(i.OLED_ShowString)
    OLED_WriteCommand                        0x0800211d   Thumb Code    32  oled.o(i.OLED_WriteCommand)
    OLED_WriteData                           0x0800213d   Thumb Code    32  oled.o(i.OLED_WriteData)
    PWM_SetCompare3                          0x0800215d   Thumb Code    16  pwm.o(i.PWM_SetCompare3)
    PWM_SetCompare4                          0x0800216d   Thumb Code    16  pwm.o(i.PWM_SetCompare4)
    PWR_BackupAccessCmd                      0x0800217d   Thumb Code     6  stm32f10x_pwr.o(i.PWR_BackupAccessCmd)
    PendSV_Handler                           0x08002189   Thumb Code     2  stm32f10x_it.o(i.PendSV_Handler)
    Pump_Control                             0x0800218d   Thumb Code    42  pump.o(i.Pump_Control)
    RCC_APB1PeriphClockCmd                   0x080021c1   Thumb Code    26  stm32f10x_rcc.o(i.RCC_APB1PeriphClockCmd)
    RCC_APB2PeriphClockCmd                   0x080021e1   Thumb Code    26  stm32f10x_rcc.o(i.RCC_APB2PeriphClockCmd)
    RCC_GetFlagStatus                        0x08002201   Thumb Code    56  stm32f10x_rcc.o(i.RCC_GetFlagStatus)
    RCC_LSEConfig                            0x0800223d   Thumb Code    46  stm32f10x_rcc.o(i.RCC_LSEConfig)
    RCC_RTCCLKCmd                            0x08002271   Thumb Code     6  stm32f10x_rcc.o(i.RCC_RTCCLKCmd)
    RCC_RTCCLKConfig                         0x0800227d   Thumb Code    12  stm32f10x_rcc.o(i.RCC_RTCCLKConfig)
    RTC_EnterConfigMode                      0x0800228d   Thumb Code    14  stm32f10x_rtc.o(i.RTC_EnterConfigMode)
    RTC_ExitConfigMode                       0x080022a1   Thumb Code    16  stm32f10x_rtc.o(i.RTC_ExitConfigMode)
    RTC_GetCounter                           0x080022b5   Thumb Code    16  stm32f10x_rtc.o(i.RTC_GetCounter)
    RTC_SetCounter                           0x080022c9   Thumb Code    24  stm32f10x_rtc.o(i.RTC_SetCounter)
    RTC_SetPrescaler                         0x080022e5   Thumb Code    26  stm32f10x_rtc.o(i.RTC_SetPrescaler)
    RTC_WaitForLastTask                      0x08002305   Thumb Code    16  stm32f10x_rtc.o(i.RTC_WaitForLastTask)
    RTC_WaitForSynchro                       0x08002319   Thumb Code    30  stm32f10x_rtc.o(i.RTC_WaitForSynchro)
    SVC_Handler                              0x0800233d   Thumb Code     2  stm32f10x_it.o(i.SVC_Handler)
    Serial_GetRxFlag                         0x08002341   Thumb Code    22  serial.o(i.Serial_GetRxFlag)
    Serial_OledShowString                    0x0800235d   Thumb Code    66  serial.o(i.Serial_OledShowString)
    Serial_RxFromEspBuf_Clear                0x080023a1   Thumb Code    20  serial.o(i.Serial_RxFromEspBuf_Clear)
    SteeperMotor_Control                     0x080024a5   Thumb Code    48  _28byj48.o(i.SteeperMotor_Control)
    SysTick_Handler                          0x080024d9   Thumb Code     2  stm32f10x_it.o(i.SysTick_Handler)
    SystemInit                               0x080024dd   Thumb Code    78  system_stm32f10x.o(i.SystemInit)
    TIM1_UP_IRQHandler                       0x0800253d   Thumb Code   178  _28byj48.o(i.TIM1_UP_IRQHandler)
    TIM3_IRQHandler                          0x08002611   Thumb Code    50  dth11.o(i.TIM3_IRQHandler)
    TIM_ClearITPendingBit                    0x08002651   Thumb Code     6  stm32f10x_tim.o(i.TIM_ClearITPendingBit)
    TIM_Cmd                                  0x08002657   Thumb Code    24  stm32f10x_tim.o(i.TIM_Cmd)
    TIM_GetCapture1                          0x0800266f   Thumb Code     6  stm32f10x_tim.o(i.TIM_GetCapture1)
    TIM_GetITStatus                          0x08002675   Thumb Code    34  stm32f10x_tim.o(i.TIM_GetITStatus)
    TIM_SetAutoreload                        0x08002697   Thumb Code     4  stm32f10x_tim.o(i.TIM_SetAutoreload)
    TIM_SetCompare3                          0x0800269b   Thumb Code     4  stm32f10x_tim.o(i.TIM_SetCompare3)
    TIM_SetCompare4                          0x0800269f   Thumb Code     6  stm32f10x_tim.o(i.TIM_SetCompare4)
    USART1_IRQHandler                        0x080026a5   Thumb Code   198  serial.o(i.USART1_IRQHandler)
    USART_ClearITPendingBit                  0x08002785   Thumb Code    30  stm32f10x_usart.o(i.USART_ClearITPendingBit)
    USART_GetITStatus                        0x080027a3   Thumb Code    84  stm32f10x_usart.o(i.USART_GetITStatus)
    USART_ReceiveData                        0x080027f7   Thumb Code    10  stm32f10x_usart.o(i.USART_ReceiveData)
    UsageFault_Handler                       0x08002801   Thumb Code     4  stm32f10x_it.o(i.UsageFault_Handler)
    Valve1_Control                           0x08002805   Thumb Code    42  valve1.o(i.Valve1_Control)
    Valve2_Control                           0x08002839   Thumb Code    42  valve2.o(i.Valve2_Control)
    _28BYJ48Stop                             0x0800286d   Thumb Code    26  _28byj48.o(i._28BYJ48Stop)
    _28BYJ48_Forward_Ration                  0x08002895   Thumb Code    30  _28byj48.o(i._28BYJ48_Forward_Ration)
    _28BYJ48_Reverse_Rotation                0x080028c5   Thumb Code    30  _28byj48.o(i._28BYJ48_Reverse_Rotation)
    __0snprintf                              0x080028f5   Thumb Code    44  printfa.o(i.__0snprintf)
    __1snprintf                              0x080028f5   Thumb Code     0  printfa.o(i.__0snprintf)
    __2snprintf                              0x080028f5   Thumb Code     0  printfa.o(i.__0snprintf)
    __c89snprintf                            0x080028f5   Thumb Code     0  printfa.o(i.__0snprintf)
    snprintf                                 0x080028f5   Thumb Code     0  printfa.o(i.__0snprintf)
    __0vsnprintf                             0x08002925   Thumb Code    40  printfa.o(i.__0vsnprintf)
    __1vsnprintf                             0x08002925   Thumb Code     0  printfa.o(i.__0vsnprintf)
    __2vsnprintf                             0x08002925   Thumb Code     0  printfa.o(i.__0vsnprintf)
    __c89vsnprintf                           0x08002925   Thumb Code     0  printfa.o(i.__0vsnprintf)
    vsnprintf                                0x08002925   Thumb Code     0  printfa.o(i.__0vsnprintf)
    __ARM_common_switch8                     0x08002951   Thumb Code    26  dump.o(i.__ARM_common_switch8)
    __ARM_isinf                              0x0800296b   Thumb Code    22  value.o(i.__ARM_isinf)
    __ARM_isnan                              0x08002981   Thumb Code    20  value.o(i.__ARM_isnan)
    __aeabi_errno_addr                       0x08002999   Thumb Code     4  errno.o(i.__aeabi_errno_addr)
    __rt_errno_addr                          0x08002999   Thumb Code     0  errno.o(i.__aeabi_errno_addr)
    __scatterload_copy                       0x080029a1   Thumb Code    14  handlers.o(i.__scatterload_copy)
    __scatterload_null                       0x080029af   Thumb Code     2  handlers.o(i.__scatterload_null)
    __scatterload_zeroinit                   0x080029b1   Thumb Code    14  handlers.o(i.__scatterload_zeroinit)
    _is_digit                                0x08002b45   Thumb Code    14  scanf_fp.o(i._is_digit)
    free                                     0x080033d5   Thumb Code    76  malloc.o(i.free)
    hashtable_close                          0x08003569   Thumb Code    16  hashtable.o(i.hashtable_close)
    hashtable_get                            0x0800364d   Thumb Code    58  hashtable.o(i.hashtable_get)
    hashtable_init                           0x0800368d   Thumb Code    72  hashtable.o(i.hashtable_init)
    hashtable_iter                           0x080036d5   Thumb Code    12  hashtable.o(i.hashtable_iter)
    hashtable_iter_key                       0x080036e1   Thumb Code     4  hashtable.o(i.hashtable_iter_key)
    hashtable_iter_next                      0x080036e5   Thumb Code    14  hashtable.o(i.hashtable_iter_next)
    hashtable_iter_value                     0x080036f3   Thumb Code     4  hashtable.o(i.hashtable_iter_value)
    hashtable_set                            0x080036f9   Thumb Code   168  hashtable.o(i.hashtable_set)
    json_array                               0x080037cf   Thumb Code    54  value.o(i.json_array)
    json_array_append_new                    0x08003805   Thumb Code    68  value.o(i.json_array_append_new)
    json_delete                              0x080038fd   Thumb Code    84  value.o(i.json_delete)
    json_false                               0x08003951   Thumb Code     4  value.o(i.json_false)
    json_integer                             0x08003969   Thumb Code    28  value.o(i.json_integer)
    json_integer_value                       0x08003985   Thumb Code    24  value.o(i.json_integer_value)
    json_loads                               0x0800399d   Thumb Code    82  load.o(i.json_loads)
    json_null                                0x08003a11   Thumb Code     4  value.o(i.json_null)
    json_object                              0x08003a19   Thumb Code    70  value.o(i.json_object)
    json_object_get                          0x08003a65   Thumb Code    28  value.o(i.json_object_get)
    json_object_iter                         0x08003a81   Thumb Code    24  value.o(i.json_object_iter)
    json_object_iter_key                     0x08003a99   Thumb Code    12  value.o(i.json_object_iter_key)
    json_object_iter_next                    0x08003aa5   Thumb Code    28  value.o(i.json_object_iter_next)
    json_object_iter_value                   0x08003ac1   Thumb Code    12  value.o(i.json_object_iter_value)
    json_object_seed                         0x08003acd   Thumb Code    34  hashtable_seed.o(i.json_object_seed)
    json_object_set_new_nocheck              0x08003af5   Thumb Code    58  value.o(i.json_object_set_new_nocheck)
    json_real                                0x08003b35   Thumb Code    52  value.o(i.json_real)
    json_real_value                          0x08003b69   Thumb Code    24  value.o(i.json_real_value)
    json_string_value                        0x08003b81   Thumb Code    18  value.o(i.json_string_value)
    json_true                                0x08003b95   Thumb Code     4  value.o(i.json_true)
    jsonp_error_init                         0x08003b9d   Thumb Code    34  error.o(i.jsonp_error_init)
    jsonp_error_set                          0x08003bbf   Thumb Code    16  error.o(i.jsonp_error_set)
    jsonp_error_set_source                   0x08003bd1   Thumb Code    56  error.o(i.jsonp_error_set_source)
    jsonp_error_vset                         0x08003c0d   Thumb Code    44  error.o(i.jsonp_error_vset)
    jsonp_free                               0x08003c39   Thumb Code    12  memory.o(i.jsonp_free)
    jsonp_malloc                             0x08003c49   Thumb Code    12  memory.o(i.jsonp_malloc)
    jsonp_stringn_nocheck_own                0x08003c59   Thumb Code    10  value.o(i.jsonp_stringn_nocheck_own)
    jsonp_strndup                            0x08003c63   Thumb Code    36  memory.o(i.jsonp_strndup)
    jsonp_strtod                             0x08003c89   Thumb Code    90  strconv.o(i.jsonp_strtod)
    main                                     0x080042fd   Thumb Code    84  main.o(i.main)
    malloc                                   0x08004359   Thumb Code    92  malloc.o(i.malloc)
    seed_from_timestamp_and_pid              0x080047ad   Thumb Code     6  jansson_config.o(i.seed_from_timestamp_and_pid)
    strbuffer_append_byte                    0x080047b3   Thumb Code    12  strbuffer.o(i.strbuffer_append_byte)
    strbuffer_append_bytes                   0x080047c1   Thumb Code   108  strbuffer.o(i.strbuffer_append_bytes)
    strbuffer_clear                          0x08004831   Thumb Code    10  strbuffer.o(i.strbuffer_clear)
    strbuffer_close                          0x0800483b   Thumb Code    24  strbuffer.o(i.strbuffer_close)
    strbuffer_init                           0x08004853   Thumb Code    34  strbuffer.o(i.strbuffer_init)
    strbuffer_pop                            0x08004875   Thumb Code    24  strbuffer.o(i.strbuffer_pop)
    strbuffer_value                          0x0800488d   Thumb Code     4  strbuffer.o(i.strbuffer_value)
    strtod                                   0x08004a15   Thumb Code    28  strtod.o(i.strtod)
    utf8_check_first                         0x08004a31   Thumb Code    60  utf.o(i.utf8_check_first)
    utf8_check_full                          0x08004a6d   Thumb Code   126  utf.o(i.utf8_check_full)
    utf8_encode                              0x08004af5   Thumb Code   120  utf.o(i.utf8_encode)
    OLED_F8x16                               0x08004b70   Data        1520  oled.o(.constdata)
    CW                                       0x08005160   Data          16  _28byj48.o(.constdata)
    CCW                                      0x08005170   Data          16  _28byj48.o(.constdata)
    __ctype_table                            0x08005198   Data         129  ctype_o.o(.constdata)
    Region$$Table$$Base                      0x08005220   Number         0  anon$$obj.o(Region$$Table)
    Region$$Table$$Limit                     0x08005240   Number         0  anon$$obj.o(Region$$Table)
    MyRTC_Time                               0x20000000   Data          12  myrtc.o(.data)
    light_status                             0x2000000c   Data           1  led.o(.data)
    light_workmode                           0x2000000d   Data           1  led.o(.data)
    Serial_RxFlag                            0x2000000e   Data           1  serial.o(.data)
    pRx_State                                0x20000010   Data           2  serial.o(.data)
    tumid_int                                0x20000014   Data           1  dth11.o(.data)
    tumid_frac                               0x20000015   Data           1  dth11.o(.data)
    temp_int                                 0x20000016   Data           1  dth11.o(.data)
    temp_frac                                0x20000017   Data           1  dth11.o(.data)
    check_sum                                0x20000018   Data           1  dth11.o(.data)
    i                                        0x20000019   Data           1  dth11.o(.data)
    air_temperature                          0x2000001c   Data           4  dth11.o(.data)
    air_humidity                             0x20000020   Data           4  dth11.o(.data)
    DTH11_ErrorCount                         0x20000024   Data           1  dth11.o(.data)
    DTH11_WorkStatus                         0x20000025   Data           1  dth11.o(.data)
    fan_status                               0x20000026   Data           1  motor.o(.data)
    fan_workmode                             0x20000027   Data           1  motor.o(.data)
    CO2Data                                  0x20000028   Data           2  sgp30.o(.data)
    TVOCData                                 0x2000002a   Data           2  sgp30.o(.data)
    SGP30_ErrorCount                         0x2000002c   Data           1  sgp30.o(.data)
    SGP30_WorkStatus                         0x2000002d   Data           1  sgp30.o(.data)
    ph_value                                 0x20000030   Data           4  phsensor.o(.data)
    PhSensor_ErrorCount                      0x20000034   Data           1  phsensor.o(.data)
    PhSensor_WorkStatus                      0x20000035   Data           1  phsensor.o(.data)
    DS18B20_ErrorCount                       0x20000038   Data           1  ds18b20.o(.data)
    DS18B20_WorkStatus                       0x20000039   Data           1  ds18b20.o(.data)
    soil_temperature                         0x2000003c   Data           4  ds18b20.o(.data)
    light                                    0x20000040   Data           4  bh1750.o(.data)
    BH1750_ErrorCount                        0x20000044   Data           1  bh1750.o(.data)
    BH1750_WorkStatus                        0x20000045   Data           1  bh1750.o(.data)
    soil_moisture                            0x20000048   Data           4  soilhumsensor.o(.data)
    soilHumSensor_ErrorCount                 0x2000004c   Data           1  soilhumsensor.o(.data)
    soilHumSensor_WorkStatus                 0x2000004d   Data           1  soilhumsensor.o(.data)
    pump_status                              0x2000004e   Data           1  pump.o(.data)
    valve1_status                            0x2000004f   Data           1  valve1.o(.data)
    valve1_workmode                          0x20000050   Data           1  valve1.o(.data)
    hc_status                                0x20000051   Data           1  heatingcore.o(.data)
    hc_workmode                              0x20000052   Data           1  heatingcore.o(.data)
    valve2_status                            0x20000053   Data           1  valve2.o(.data)
    valve2_workmode                          0x20000054   Data           1  valve2.o(.data)
    Mode                                     0x20000056   Data           1  _28byj48.o(.data)
    Count                                    0x20000058   Data           2  _28byj48.o(.data)
    arr                                      0x2000005a   Data           1  _28byj48.o(.data)
    curtain_status                           0x2000005b   Data           1  _28byj48.o(.data)
    mode                                     0x20000060   Data           1  interactwithtcp.o(.data)
    airT_Max                                 0x20000064   Data           4  interactwithtcp.o(.data)
    airT_Min                                 0x20000068   Data           4  interactwithtcp.o(.data)
    airH_Max                                 0x2000006c   Data           4  interactwithtcp.o(.data)
    airH_Min                                 0x20000070   Data           4  interactwithtcp.o(.data)
    ph_Max                                   0x20000074   Data           4  interactwithtcp.o(.data)
    ph_Min                                   0x20000078   Data           4  interactwithtcp.o(.data)
    soilT_Max                                0x2000007c   Data           4  interactwithtcp.o(.data)
    soilT_Min                                0x20000080   Data           4  interactwithtcp.o(.data)
    soilH_Max                                0x20000084   Data           4  interactwithtcp.o(.data)
    soilH_Min                                0x20000088   Data           4  interactwithtcp.o(.data)
    co2_Max                                  0x2000008c   Data           2  interactwithtcp.o(.data)
    co2_Min                                  0x2000008e   Data           2  interactwithtcp.o(.data)
    light_Max                                0x20000090   Data           2  interactwithtcp.o(.data)
    light_Min                                0x20000092   Data           2  interactwithtcp.o(.data)
    Led_Mode                                 0x20000094   Data           1  interactwithtcp.o(.data)
    Fan_Mode                                 0x20000095   Data           1  interactwithtcp.o(.data)
    Valve1_Mode                              0x20000096   Data           1  interactwithtcp.o(.data)
    Valve2_Mode                              0x20000097   Data           1  interactwithtcp.o(.data)
    Pump_Mode                                0x20000098   Data           1  interactwithtcp.o(.data)
    HeatingCore_Mode                         0x20000099   Data           1  interactwithtcp.o(.data)
    Curtain_Mode                             0x2000009a   Data           1  interactwithtcp.o(.data)
    Led_WorkingTime                          0x2000009c   Data           4  interactwithtcp.o(.data)
    Fan_WorkingTime                          0x200000a0   Data           4  interactwithtcp.o(.data)
    Pump_WorkingTime                         0x200000a4   Data           4  interactwithtcp.o(.data)
    Curtain_WorkingTime                      0x200000a8   Data           4  interactwithtcp.o(.data)
    hashtable_seed                           0x200000cc   Data           4  hashtable_seed.o(.data)
    __microlib_freelist                      0x200000d4   Data           4  mvars.o(.data)
    __microlib_freelist_initialised          0x200000d8   Data           4  mvars.o(.data)
    Serial_RxFromEspBuf                      0x200000dc   Data         500  serial.o(.bss)
    Rx_Temp                                  0x200002d0   Data         500  serial.o(.bss)
    lst_pulse_perid                          0x200004c4   Data          43  dth11.o(.bss)
    lst_bit                                  0x200004ef   Data          40  dth11.o(.bss)
    __heap_base                              0x20000548   Data           0  startup_stm32f10x_md.o(HEAP)
    __heap_limit                             0x20001100   Data           0  startup_stm32f10x_md.o(HEAP)
    __initial_sp                             0x20001500   Data           0  startup_stm32f10x_md.o(STACK)



==============================================================================

Memory Map of the image

  Image Entry point : 0x080000ed

  Load Region LR_IROM1 (Base: 0x08000000, Size: 0x0000531c, Max: 0x00010000, ABSOLUTE)

    Execution Region ER_IROM1 (Exec base: 0x08000000, Load base: 0x08000000, Size: 0x00005240, Max: 0x00010000, ABSOLUTE)

    Exec Addr    Load Addr    Size         Type   Attr      Idx    E Section Name        Object

    0x08000000   0x08000000   0x000000ec   Data   RO          132    RESET               startup_stm32f10x_md.o
    0x080000ec   0x080000ec   0x00000000   Code   RO         5713  * .ARM.Collect$$$$00000000  mc_w.l(entry.o)
    0x080000ec   0x080000ec   0x00000004   Code   RO         6111    .ARM.Collect$$$$00000001  mc_w.l(entry2.o)
    0x080000f0   0x080000f0   0x00000004   Code   RO         6114    .ARM.Collect$$$$00000004  mc_w.l(entry5.o)
    0x080000f4   0x080000f4   0x00000000   Code   RO         6116    .ARM.Collect$$$$00000008  mc_w.l(entry7b.o)
    0x080000f4   0x080000f4   0x00000000   Code   RO         6118    .ARM.Collect$$$$0000000A  mc_w.l(entry8b.o)
    0x080000f4   0x080000f4   0x00000008   Code   RO         6119    .ARM.Collect$$$$0000000B  mc_w.l(entry9a.o)
    0x080000fc   0x080000fc   0x00000000   Code   RO         6121    .ARM.Collect$$$$0000000D  mc_w.l(entry10a.o)
    0x080000fc   0x080000fc   0x00000000   Code   RO         6123    .ARM.Collect$$$$0000000F  mc_w.l(entry11a.o)
    0x080000fc   0x080000fc   0x00000004   Code   RO         6112    .ARM.Collect$$$$00002712  mc_w.l(entry2.o)
    0x08000100   0x08000100   0x00000024   Code   RO          133    .text               startup_stm32f10x_md.o
    0x08000124   0x08000124   0x0000002c   Code   RO         5736    .text               mc_w.l(uidiv.o)
    0x08000150   0x08000150   0x000000a8   Code   RO         5746    .text               mc_w.l(mktime.o)
    0x080001f8   0x080001f8   0x00000040   Code   RO         5751    .text               mc_w.l(memmovea.o)
    0x08000238   0x08000238   0x00000024   Code   RO         5753    .text               mc_w.l(memseta.o)
    0x0800025c   0x0800025c   0x00000018   Code   RO         5755    .text               mc_w.l(strcat.o)
    0x08000274   0x08000274   0x00000024   Code   RO         5757    .text               mc_w.l(strstr.o)
    0x08000298   0x08000298   0x0000000e   Code   RO         5761    .text               mc_w.l(strlen.o)
    0x080002a6   0x080002a6   0x0000001c   Code   RO         5763    .text               mc_w.l(strcmp.o)
    0x080002c2   0x080002c2   0x00000014   Code   RO         5765    .text               mc_w.l(memchr.o)
    0x080002d6   0x080002d6   0x00000012   Code   RO         5769    .text               mc_w.l(strcpy.o)
    0x080002e8   0x080002e8   0x00000004   Code   RO         6073    .text               mc_w.l(strtoll.o)
    0x080002ec   0x080002ec   0x0000014e   Code   RO         6081    .text               mf_w.l(dadd.o)
    0x0800043a   0x0800043a   0x000000e4   Code   RO         6083    .text               mf_w.l(dmul.o)
    0x0800051e   0x0800051e   0x000000de   Code   RO         6085    .text               mf_w.l(ddiv.o)
    0x080005fc   0x080005fc   0x00000032   Code   RO         6097    .text               mf_w.l(dfixui.o)
    0x0800062e   0x0800062e   0x00000002   PAD
    0x08000630   0x08000630   0x00000030   Code   RO         6101    .text               mf_w.l(cdcmple.o)
    0x08000660   0x08000660   0x00000030   Code   RO         6103    .text               mf_w.l(cdrcmple.o)
    0x08000690   0x08000690   0x00000038   Code   RO         6105    .text               mf_w.l(d2f.o)
    0x080006c8   0x080006c8   0x00000014   Code   RO         6107    .text               mf_w.l(cfcmple.o)
    0x080006dc   0x080006dc   0x00000014   Code   RO         6109    .text               mf_w.l(cfrcmple.o)
    0x080006f0   0x080006f0   0x00000062   Code   RO         6129    .text               mc_w.l(uldiv.o)
    0x08000752   0x08000752   0x0000001e   Code   RO         6131    .text               mc_w.l(llshl.o)
    0x08000770   0x08000770   0x00000020   Code   RO         6133    .text               mc_w.l(llushr.o)
    0x08000790   0x08000790   0x00000024   Code   RO         6135    .text               mc_w.l(llsshr.o)
    0x080007b4   0x080007b4   0x0000000c   Code   RO         6137    .text               mc_w.l(localtime_w.o)
    0x080007c0   0x080007c0   0x0000008c   Code   RO         6140    .text               mc_w.l(localtime_i.o)
    0x0800084c   0x0800084c   0x0000009c   Code   RO         6145    .text               mc_w.l(strtod.o)
    0x080008e8   0x080008e8   0x00000090   Code   RO         6147    .text               mc_w.l(__strtoll.o)
    0x08000978   0x08000978   0x00000000   Code   RO         6149    .text               mc_w.l(iusefp.o)
    0x08000978   0x08000978   0x0000006e   Code   RO         6151    .text               mf_w.l(fepilogue.o)
    0x080009e6   0x080009e6   0x000000ba   Code   RO         6153    .text               mf_w.l(depilogue.o)
    0x08000aa0   0x08000aa0   0x00000030   Code   RO         6155    .text               mf_w.l(dfixul.o)
    0x08000ad0   0x08000ad0   0x00000024   Code   RO         6157    .text               mc_w.l(init.o)
    0x08000af4   0x08000af4   0x00000008   Code   RO         6161    .text               mc_w.l(ctype_o.o)
    0x08000afc   0x08000afc   0x00000012   Code   RO         6183    .text               mc_w.l(isspace_o.o)
    0x08000b0e   0x08000b0e   0x00000002   PAD
    0x08000b10   0x08000b10   0x00000360   Code   RO         6189    .text               mc_w.l(scanf_fp.o)
    0x08000e70   0x08000e70   0x00000040   Code   RO         6193    .text               mc_w.l(_sgetc.o)
    0x08000eb0   0x08000eb0   0x000000c2   Code   RO         6195    .text               mc_w.l(_strtoull.o)
    0x08000f72   0x08000f72   0x0000001c   Code   RO         6201    .text               mc_w.l(_chval.o)
    0x08000f8e   0x08000f8e   0x00000018   Code   RO         6203    .text               mf_w.l(dfltul.o)
    0x08000fa6   0x08000fa6   0x00000002   PAD
    0x08000fa8   0x08000fa8   0x0000001c   Code   RO          431    i.BKP_ReadBackupRegister  stm32f10x_bkp.o
    0x08000fc4   0x08000fc4   0x0000001c   Code   RO          435    i.BKP_WriteBackupRegister  stm32f10x_bkp.o
    0x08000fe0   0x08000fe0   0x00000004   Code   RO         4440    i.BusFault_Handler  stm32f10x_it.o
    0x08000fe4   0x08000fe4   0x00000a38   Code   RO         4339    i.ControlDevice     interactwithtcp.o
    0x08001a1c   0x08001a1c   0x00000002   Code   RO         4441    i.DebugMon_Handler  stm32f10x_it.o
    0x08001a1e   0x08001a1e   0x00000018   Code   RO         3196    i.Delay_ms          delay.o
    0x08001a36   0x08001a36   0x00000018   Code   RO         3197    i.Delay_s           delay.o
    0x08001a4e   0x08001a4e   0x0000002e   Code   RO         3198    i.Delay_us          delay.o
    0x08001a7c   0x08001a7c   0x00000116   Code   RO         1347    i.GPIO_Init         stm32f10x_gpio.o
    0x08001b92   0x08001b92   0x00000004   Code   RO         1354    i.GPIO_ResetBits    stm32f10x_gpio.o
    0x08001b96   0x08001b96   0x00000004   Code   RO         1355    i.GPIO_SetBits      stm32f10x_gpio.o
    0x08001b9a   0x08001b9a   0x00000004   Code   RO         1357    i.GPIO_Write        stm32f10x_gpio.o
    0x08001b9e   0x08001b9e   0x0000000a   Code   RO         1358    i.GPIO_WriteBit     stm32f10x_gpio.o
    0x08001ba8   0x08001ba8   0x00000004   Code   RO         4442    i.HardFault_Handler  stm32f10x_it.o
    0x08001bac   0x08001bac   0x00000034   Code   RO         4117    i.HeatingCore_Control  heatingcore.o
    0x08001be0   0x08001be0   0x00000050   Code   RO         3385    i.LED_Control       led.o
    0x08001c30   0x08001c30   0x00000028   Code   RO         3387    i.LED_SetStrength   led.o
    0x08001c58   0x08001c58   0x00000004   Code   RO         4443    i.MemManage_Handler  stm32f10x_it.o
    0x08001c5c   0x08001c5c   0x0000008c   Code   RO         3734    i.Motor_Control     motor.o
    0x08001ce8   0x08001ce8   0x00000040   Code   RO         3736    i.Motor_SetSpeed    motor.o
    0x08001d28   0x08001d28   0x00000070   Code   RO         3251    i.MyRTC_Init        myrtc.o
    0x08001d98   0x08001d98   0x00000048   Code   RO         3252    i.MyRTC_ReadTime    myrtc.o
    0x08001de0   0x08001de0   0x0000004c   Code   RO         3253    i.MyRTC_SetTime     myrtc.o
    0x08001e2c   0x08001e2c   0x00000002   Code   RO         4444    i.NMI_Handler       stm32f10x_it.o
    0x08001e2e   0x08001e2e   0x0000002a   Code   RO         3421    i.OLED_Clear        oled.o
    0x08001e58   0x08001e58   0x00000050   Code   RO         3422    i.OLED_I2C_Init     oled.o
    0x08001ea8   0x08001ea8   0x00000054   Code   RO         3423    i.OLED_I2C_SendByte  oled.o
    0x08001efc   0x08001efc   0x00000034   Code   RO         3424    i.OLED_I2C_Start    oled.o
    0x08001f30   0x08001f30   0x00000028   Code   RO         3425    i.OLED_I2C_Stop     oled.o
    0x08001f58   0x08001f58   0x000000ae   Code   RO         3426    i.OLED_Init         oled.o
    0x08002006   0x08002006   0x00000014   Code   RO         3427    i.OLED_Pow          oled.o
    0x0800201a   0x0800201a   0x00000022   Code   RO         3428    i.OLED_SetCursor    oled.o
    0x0800203c   0x0800203c   0x00000074   Code   RO         3430    i.OLED_ShowChar     oled.o
    0x080020b0   0x080020b0   0x00000044   Code   RO         3432    i.OLED_ShowNum      oled.o
    0x080020f4   0x080020f4   0x00000028   Code   RO         3434    i.OLED_ShowString   oled.o
    0x0800211c   0x0800211c   0x00000020   Code   RO         3435    i.OLED_WriteCommand  oled.o
    0x0800213c   0x0800213c   0x00000020   Code   RO         3436    i.OLED_WriteData    oled.o
    0x0800215c   0x0800215c   0x00000010   Code   RO         3765    i.PWM_SetCompare3   pwm.o
    0x0800216c   0x0800216c   0x00000010   Code   RO         3766    i.PWM_SetCompare4   pwm.o
    0x0800217c   0x0800217c   0x0000000c   Code   RO         1710    i.PWR_BackupAccessCmd  stm32f10x_pwr.o
    0x08002188   0x08002188   0x00000002   Code   RO         4445    i.PendSV_Handler    stm32f10x_it.o
    0x0800218a   0x0800218a   0x00000002   PAD
    0x0800218c   0x0800218c   0x00000034   Code   RO         4075    i.Pump_Control      pump.o
    0x080021c0   0x080021c0   0x00000020   Code   RO         1775    i.RCC_APB1PeriphClockCmd  stm32f10x_rcc.o
    0x080021e0   0x080021e0   0x00000020   Code   RO         1777    i.RCC_APB2PeriphClockCmd  stm32f10x_rcc.o
    0x08002200   0x08002200   0x0000003c   Code   RO         1786    i.RCC_GetFlagStatus  stm32f10x_rcc.o
    0x0800223c   0x0800223c   0x00000034   Code   RO         1793    i.RCC_LSEConfig     stm32f10x_rcc.o
    0x08002270   0x08002270   0x0000000c   Code   RO         1800    i.RCC_RTCCLKCmd     stm32f10x_rcc.o
    0x0800227c   0x0800227c   0x00000010   Code   RO         1801    i.RCC_RTCCLKConfig  stm32f10x_rcc.o
    0x0800228c   0x0800228c   0x00000014   Code   RO         1978    i.RTC_EnterConfigMode  stm32f10x_rtc.o
    0x080022a0   0x080022a0   0x00000014   Code   RO         1979    i.RTC_ExitConfigMode  stm32f10x_rtc.o
    0x080022b4   0x080022b4   0x00000014   Code   RO         1980    i.RTC_GetCounter    stm32f10x_rtc.o
    0x080022c8   0x080022c8   0x0000001c   Code   RO         1986    i.RTC_SetCounter    stm32f10x_rtc.o
    0x080022e4   0x080022e4   0x00000020   Code   RO         1987    i.RTC_SetPrescaler  stm32f10x_rtc.o
    0x08002304   0x08002304   0x00000014   Code   RO         1988    i.RTC_WaitForLastTask  stm32f10x_rtc.o
    0x08002318   0x08002318   0x00000024   Code   RO         1989    i.RTC_WaitForSynchro  stm32f10x_rtc.o
    0x0800233c   0x0800233c   0x00000002   Code   RO         4446    i.SVC_Handler       stm32f10x_it.o
    0x0800233e   0x0800233e   0x00000002   PAD
    0x08002340   0x08002340   0x0000001c   Code   RO         3529    i.Serial_GetRxFlag  serial.o
    0x0800235c   0x0800235c   0x00000042   Code   RO         3531    i.Serial_OledShowString  serial.o
    0x0800239e   0x0800239e   0x00000002   PAD
    0x080023a0   0x080023a0   0x0000001c   Code   RO         3533    i.Serial_RxFromEspBuf_Clear  serial.o
    0x080023bc   0x080023bc   0x00000008   Code   RO           17    i.SetSysClock       system_stm32f10x.o
    0x080023c4   0x080023c4   0x000000e0   Code   RO           18    i.SetSysClockTo72   system_stm32f10x.o
    0x080024a4   0x080024a4   0x00000034   Code   RO         4159    i.SteeperMotor_Control  _28byj48.o
    0x080024d8   0x080024d8   0x00000002   Code   RO         4447    i.SysTick_Handler   stm32f10x_it.o
    0x080024da   0x080024da   0x00000002   PAD
    0x080024dc   0x080024dc   0x00000060   Code   RO           20    i.SystemInit        system_stm32f10x.o
    0x0800253c   0x0800253c   0x000000d4   Code   RO         4160    i.TIM1_UP_IRQHandler  _28byj48.o
    0x08002610   0x08002610   0x00000040   Code   RO         3664    i.TIM3_IRQHandler   dth11.o
    0x08002650   0x08002650   0x00000006   Code   RO         2416    i.TIM_ClearITPendingBit  stm32f10x_tim.o
    0x08002656   0x08002656   0x00000018   Code   RO         2421    i.TIM_Cmd           stm32f10x_tim.o
    0x0800266e   0x0800266e   0x00000006   Code   RO         2436    i.TIM_GetCapture1   stm32f10x_tim.o
    0x08002674   0x08002674   0x00000022   Code   RO         2442    i.TIM_GetITStatus   stm32f10x_tim.o
    0x08002696   0x08002696   0x00000004   Code   RO         2480    i.TIM_SetAutoreload  stm32f10x_tim.o
    0x0800269a   0x0800269a   0x00000004   Code   RO         2484    i.TIM_SetCompare3   stm32f10x_tim.o
    0x0800269e   0x0800269e   0x00000006   Code   RO         2485    i.TIM_SetCompare4   stm32f10x_tim.o
    0x080026a4   0x080026a4   0x000000e0   Code   RO         3538    i.USART1_IRQHandler  serial.o
    0x08002784   0x08002784   0x0000001e   Code   RO         2957    i.USART_ClearITPendingBit  stm32f10x_usart.o
    0x080027a2   0x080027a2   0x00000054   Code   RO         2964    i.USART_GetITStatus  stm32f10x_usart.o
    0x080027f6   0x080027f6   0x0000000a   Code   RO         2974    i.USART_ReceiveData  stm32f10x_usart.o
    0x08002800   0x08002800   0x00000004   Code   RO         4448    i.UsageFault_Handler  stm32f10x_it.o
    0x08002804   0x08002804   0x00000034   Code   RO         4096    i.Valve1_Control    valve1.o
    0x08002838   0x08002838   0x00000034   Code   RO         4138    i.Valve2_Control    valve2.o
    0x0800286c   0x0800286c   0x00000028   Code   RO         4161    i._28BYJ48Stop      _28byj48.o
    0x08002894   0x08002894   0x00000030   Code   RO         4162    i._28BYJ48_Forward_Ration  _28byj48.o
    0x080028c4   0x080028c4   0x00000030   Code   RO         4164    i._28BYJ48_Reverse_Rotation  _28byj48.o
    0x080028f4   0x080028f4   0x00000030   Code   RO         6011    i.__0snprintf       mc_w.l(printfa.o)
    0x08002924   0x08002924   0x0000002c   Code   RO         6015    i.__0vsnprintf      mc_w.l(printfa.o)
    0x08002950   0x08002950   0x0000001a   Code   RO         4577    i.__ARM_common_switch8  jansson_CM3LE.lib(dump.o)
    0x0800296a   0x0800296a   0x00000016   Code   RO         5270    i.__ARM_isinf       jansson_CM3LE.lib(value.o)
    0x08002980   0x08002980   0x00000018   Code   RO         5275    i.__ARM_isnan       jansson_CM3LE.lib(value.o)
    0x08002998   0x08002998   0x00000008   Code   RO         6066    i.__aeabi_errno_addr  mc_w.l(errno.o)
    0x080029a0   0x080029a0   0x0000000e   Code   RO         6207    i.__scatterload_copy  mc_w.l(handlers.o)
    0x080029ae   0x080029ae   0x00000002   Code   RO         6208    i.__scatterload_null  mc_w.l(handlers.o)
    0x080029b0   0x080029b0   0x0000000e   Code   RO         6209    i.__scatterload_zeroinit  mc_w.l(handlers.o)
    0x080029be   0x080029be   0x00000002   PAD
    0x080029c0   0x080029c0   0x00000184   Code   RO         6017    i._fp_digits        mc_w.l(printfa.o)
    0x08002b44   0x08002b44   0x0000000e   Code   RO         6191    i._is_digit         mc_w.l(scanf_fp.o)
    0x08002b52   0x08002b52   0x00000002   PAD
    0x08002b54   0x08002b54   0x000006dc   Code   RO         6018    i._printf_core      mc_w.l(printfa.o)
    0x08003230   0x08003230   0x00000024   Code   RO         6019    i._printf_post_padding  mc_w.l(printfa.o)
    0x08003254   0x08003254   0x0000002e   Code   RO         6020    i._printf_pre_padding  mc_w.l(printfa.o)
    0x08003282   0x08003282   0x00000016   Code   RO         6021    i._snputc           mc_w.l(printfa.o)
    0x08003298   0x08003298   0x00000018   Code   RO         4924    i.array_copy        jansson_CM3LE.lib(value.o)
    0x080032b0   0x080032b0   0x00000016   Code   RO         5364    i.bucket_is_empty   jansson_CM3LE.lib(hashtable.o)
    0x080032c6   0x080032c6   0x0000004c   Code   RO         4625    i.decode_unicode_escape  jansson_CM3LE.lib(load.o)
    0x08003312   0x08003312   0x00000002   PAD
    0x08003314   0x08003314   0x000000c0   Code   RO         4626    i.error_set         jansson_CM3LE.lib(load.o)
    0x080033d4   0x080033d4   0x00000050   Code   RO         6038    i.free              mc_w.l(malloc.o)
    0x08003424   0x08003424   0x00000144   Code   RO         5365    i.hashlittle        jansson_CM3LE.lib(hashtable.o)
    0x08003568   0x08003568   0x00000010   Code   RO         5367    i.hashtable_close   jansson_CM3LE.lib(hashtable.o)
    0x08003578   0x08003578   0x00000022   Code   RO         5369    i.hashtable_do_clear  jansson_CM3LE.lib(hashtable.o)
    0x0800359a   0x0800359a   0x00000076   Code   RO         5371    i.hashtable_do_rehash  jansson_CM3LE.lib(hashtable.o)
    0x08003610   0x08003610   0x0000003c   Code   RO         5372    i.hashtable_find_pair  jansson_CM3LE.lib(hashtable.o)
    0x0800364c   0x0800364c   0x00000040   Code   RO         5373    i.hashtable_get     jansson_CM3LE.lib(hashtable.o)
    0x0800368c   0x0800368c   0x00000048   Code   RO         5374    i.hashtable_init    jansson_CM3LE.lib(hashtable.o)
    0x080036d4   0x080036d4   0x0000000c   Code   RO         5375    i.hashtable_iter    jansson_CM3LE.lib(hashtable.o)
    0x080036e0   0x080036e0   0x00000004   Code   RO         5377    i.hashtable_iter_key  jansson_CM3LE.lib(hashtable.o)
    0x080036e4   0x080036e4   0x0000000e   Code   RO         5378    i.hashtable_iter_next  jansson_CM3LE.lib(hashtable.o)
    0x080036f2   0x080036f2   0x00000004   Code   RO         5381    i.hashtable_iter_value  jansson_CM3LE.lib(hashtable.o)
    0x080036f6   0x080036f6   0x00000002   PAD
    0x080036f8   0x080036f8   0x000000ac   Code   RO         5382    i.hashtable_set     jansson_CM3LE.lib(hashtable.o)
    0x080037a4   0x080037a4   0x0000002a   Code   RO         5383    i.insert_to_bucket  jansson_CM3LE.lib(hashtable.o)
    0x080037ce   0x080037ce   0x00000036   Code   RO         4926    i.json_array        jansson_CM3LE.lib(value.o)
    0x08003804   0x08003804   0x00000048   Code   RO         4927    i.json_array_append_new  jansson_CM3LE.lib(value.o)
    0x0800384c   0x0800384c   0x0000004c   Code   RO         4931    i.json_array_grow   jansson_CM3LE.lib(value.o)
    0x08003898   0x08003898   0x0000001c   Code   RO         4342    i.json_decref       interactwithtcp.o
    0x080038b4   0x080038b4   0x00000018   Code   RO         4627    i.json_decref       jansson_CM3LE.lib(load.o)
    0x080038cc   0x080038cc   0x00000018   Code   RO         4937    i.json_decref       jansson_CM3LE.lib(value.o)
    0x080038e4   0x080038e4   0x00000018   Code   RO         5384    i.json_decref       jansson_CM3LE.lib(hashtable.o)
    0x080038fc   0x080038fc   0x00000054   Code   RO         4939    i.json_delete       jansson_CM3LE.lib(value.o)
    0x08003950   0x08003950   0x00000008   Code   RO         4941    i.json_false        jansson_CM3LE.lib(value.o)
    0x08003958   0x08003958   0x00000010   Code   RO         4628    i.json_incref       jansson_CM3LE.lib(load.o)
    0x08003968   0x08003968   0x0000001c   Code   RO         4943    i.json_integer      jansson_CM3LE.lib(value.o)
    0x08003984   0x08003984   0x00000018   Code   RO         4945    i.json_integer_value  jansson_CM3LE.lib(value.o)
    0x0800399c   0x0800399c   0x00000074   Code   RO         4633    i.json_loads        jansson_CM3LE.lib(load.o)
    0x08003a10   0x08003a10   0x00000008   Code   RO         4946    i.json_null         jansson_CM3LE.lib(value.o)
    0x08003a18   0x08003a18   0x0000004c   Code   RO         4948    i.json_object       jansson_CM3LE.lib(value.o)
    0x08003a64   0x08003a64   0x0000001c   Code   RO         4953    i.json_object_get   jansson_CM3LE.lib(value.o)
    0x08003a80   0x08003a80   0x00000018   Code   RO         4954    i.json_object_iter  jansson_CM3LE.lib(value.o)
    0x08003a98   0x08003a98   0x0000000c   Code   RO         4956    i.json_object_iter_key  jansson_CM3LE.lib(value.o)
    0x08003aa4   0x08003aa4   0x0000001c   Code   RO         4957    i.json_object_iter_next  jansson_CM3LE.lib(value.o)
    0x08003ac0   0x08003ac0   0x0000000c   Code   RO         4959    i.json_object_iter_value  jansson_CM3LE.lib(value.o)
    0x08003acc   0x08003acc   0x00000028   Code   RO         5691    i.json_object_seed  jansson_CM3LE.lib(hashtable_seed.o)
    0x08003af4   0x08003af4   0x00000040   Code   RO         4962    i.json_object_set_new_nocheck  jansson_CM3LE.lib(value.o)
    0x08003b34   0x08003b34   0x00000034   Code   RO         4968    i.json_real         jansson_CM3LE.lib(value.o)
    0x08003b68   0x08003b68   0x00000018   Code   RO         4970    i.json_real_value   jansson_CM3LE.lib(value.o)
    0x08003b80   0x08003b80   0x00000012   Code   RO         4979    i.json_string_value  jansson_CM3LE.lib(value.o)
    0x08003b92   0x08003b92   0x00000002   PAD
    0x08003b94   0x08003b94   0x00000008   Code   RO         4982    i.json_true         jansson_CM3LE.lib(value.o)
    0x08003b9c   0x08003b9c   0x00000022   Code   RO         5319    i.jsonp_error_init  jansson_CM3LE.lib(error.o)
    0x08003bbe   0x08003bbe   0x00000010   Code   RO         5320    i.jsonp_error_set   jansson_CM3LE.lib(error.o)
    0x08003bce   0x08003bce   0x00000002   PAD
    0x08003bd0   0x08003bd0   0x0000003c   Code   RO         5321    i.jsonp_error_set_source  jansson_CM3LE.lib(error.o)
    0x08003c0c   0x08003c0c   0x0000002c   Code   RO         5322    i.jsonp_error_vset  jansson_CM3LE.lib(error.o)
    0x08003c38   0x08003c38   0x00000010   Code   RO         5522    i.jsonp_free        jansson_CM3LE.lib(memory.o)
    0x08003c48   0x08003c48   0x00000010   Code   RO         5523    i.jsonp_malloc      jansson_CM3LE.lib(memory.o)
    0x08003c58   0x08003c58   0x0000000a   Code   RO         4983    i.jsonp_stringn_nocheck_own  jansson_CM3LE.lib(value.o)
    0x08003c62   0x08003c62   0x00000024   Code   RO         5525    i.jsonp_strndup     jansson_CM3LE.lib(memory.o)
    0x08003c86   0x08003c86   0x00000002   PAD
    0x08003c88   0x08003c88   0x00000064   Code   RO         5628    i.jsonp_strtod      jansson_CM3LE.lib(strconv.o)
    0x08003cec   0x08003cec   0x0000001c   Code   RO         4634    i.lex_close         jansson_CM3LE.lib(load.o)
    0x08003d08   0x08003d08   0x00000012   Code   RO         4635    i.lex_free_string   jansson_CM3LE.lib(load.o)
    0x08003d1a   0x08003d1a   0x00000008   Code   RO         4636    i.lex_get           jansson_CM3LE.lib(load.o)
    0x08003d22   0x08003d22   0x0000001e   Code   RO         4637    i.lex_get_save      jansson_CM3LE.lib(load.o)
    0x08003d40   0x08003d40   0x00000030   Code   RO         4638    i.lex_init          jansson_CM3LE.lib(load.o)
    0x08003d70   0x08003d70   0x0000000c   Code   RO         4639    i.lex_save          jansson_CM3LE.lib(load.o)
    0x08003d7c   0x08003d7c   0x00000138   Code   RO         4640    i.lex_scan          jansson_CM3LE.lib(load.o)
    0x08003eb4   0x08003eb4   0x0000018c   Code   RO         4641    i.lex_scan_number   jansson_CM3LE.lib(load.o)
    0x08004040   0x08004040   0x00000288   Code   RO         4642    i.lex_scan_string   jansson_CM3LE.lib(load.o)
    0x080042c8   0x080042c8   0x00000026   Code   RO         4643    i.lex_unget_unsave  jansson_CM3LE.lib(load.o)
    0x080042ee   0x080042ee   0x0000000e   Code   RO         5385    i.list_insert       jansson_CM3LE.lib(hashtable.o)
    0x080042fc   0x080042fc   0x0000005c   Code   RO         4281    i.main              main.o
    0x08004358   0x08004358   0x0000006c   Code   RO         6039    i.malloc            mc_w.l(malloc.o)
    0x080043c4   0x080043c4   0x00000094   Code   RO         4644    i.parse_array       jansson_CM3LE.lib(load.o)
    0x08004458   0x08004458   0x00000094   Code   RO         4645    i.parse_json        jansson_CM3LE.lib(load.o)
    0x080044ec   0x080044ec   0x00000180   Code   RO         4646    i.parse_object      jansson_CM3LE.lib(load.o)
    0x0800466c   0x0800466c   0x00000140   Code   RO         4647    i.parse_value       jansson_CM3LE.lib(load.o)
    0x080047ac   0x080047ac   0x00000006   Code   RO         4503    i.seed_from_timestamp_and_pid  jansson_config.o
    0x080047b2   0x080047b2   0x0000000c   Code   RO         5568    i.strbuffer_append_byte  jansson_CM3LE.lib(strbuffer.o)
    0x080047be   0x080047be   0x00000002   PAD
    0x080047c0   0x080047c0   0x00000070   Code   RO         5569    i.strbuffer_append_bytes  jansson_CM3LE.lib(strbuffer.o)
    0x08004830   0x08004830   0x0000000a   Code   RO         5570    i.strbuffer_clear   jansson_CM3LE.lib(strbuffer.o)
    0x0800483a   0x0800483a   0x00000018   Code   RO         5571    i.strbuffer_close   jansson_CM3LE.lib(strbuffer.o)
    0x08004852   0x08004852   0x00000022   Code   RO         5572    i.strbuffer_init    jansson_CM3LE.lib(strbuffer.o)
    0x08004874   0x08004874   0x00000018   Code   RO         5573    i.strbuffer_pop     jansson_CM3LE.lib(strbuffer.o)
    0x0800488c   0x0800488c   0x00000004   Code   RO         5575    i.strbuffer_value   jansson_CM3LE.lib(strbuffer.o)
    0x08004890   0x08004890   0x000000e4   Code   RO         4648    i.stream_get        jansson_CM3LE.lib(load.o)
    0x08004974   0x08004974   0x0000004a   Code   RO         4649    i.stream_unget      jansson_CM3LE.lib(load.o)
    0x080049be   0x080049be   0x0000003e   Code   RO         4984    i.string_create     jansson_CM3LE.lib(value.o)
    0x080049fc   0x080049fc   0x00000018   Code   RO         4650    i.string_get        jansson_CM3LE.lib(load.o)
    0x08004a14   0x08004a14   0x0000001c   Code   RO         5710    i.strtod            m_ws.l(strtod.o)
    0x08004a30   0x08004a30   0x0000003c   Code   RO         5655    i.utf8_check_first  jansson_CM3LE.lib(utf.o)
    0x08004a6c   0x08004a6c   0x00000088   Code   RO         5656    i.utf8_check_full   jansson_CM3LE.lib(utf.o)
    0x08004af4   0x08004af4   0x0000007c   Code   RO         5658    i.utf8_encode       jansson_CM3LE.lib(utf.o)
    0x08004b70   0x08004b70   0x000005f0   Data   RO         3437    .constdata          oled.o
    0x08005160   0x08005160   0x00000020   Data   RO         4165    .constdata          _28byj48.o
    0x08005180   0x08005180   0x0000000c   Data   RO         5747    .constdata          mc_w.l(mktime.o)
    0x0800518c   0x0800518c   0x0000000c   Data   RO         6141    .constdata          mc_w.l(localtime_i.o)
    0x08005198   0x08005198   0x00000081   Data   RO         6162    .constdata          mc_w.l(ctype_o.o)
    0x08005219   0x08005219   0x00000003   PAD
    0x0800521c   0x0800521c   0x00000004   Data   RO         6163    .constdata          mc_w.l(ctype_o.o)
    0x08005220   0x08005220   0x00000020   Data   RO         6205    Region$$Table       anon$$obj.o


    Execution Region RW_IRAM1 (Exec base: 0x20000000, Load base: 0x08005240, Size: 0x00001500, Max: 0x00005000, ABSOLUTE)

    Exec Addr    Load Addr    Size         Type   Attr      Idx    E Section Name        Object

    0x20000000   0x08005240   0x0000000c   Data   RW         3254    .data               myrtc.o
    0x2000000c   0x0800524c   0x00000002   Data   RW         3388    .data               led.o
    0x2000000e   0x0800524e   0x00000005   Data   RW         3540    .data               serial.o
    0x20000013   0x08005253   0x00000001   PAD
    0x20000014   0x08005254   0x00000012   Data   RW         3666    .data               dth11.o
    0x20000026   0x08005266   0x00000002   Data   RW         3737    .data               motor.o
    0x20000028   0x08005268   0x00000006   Data   RW         3792    .data               sgp30.o
    0x2000002e   0x0800526e   0x00000002   PAD
    0x20000030   0x08005270   0x00000006   Data   RW         3875    .data               phsensor.o
    0x20000036   0x08005276   0x00000002   PAD
    0x20000038   0x08005278   0x00000008   Data   RW         3918    .data               ds18b20.o
    0x20000040   0x08005280   0x00000006   Data   RW         4021    .data               bh1750.o
    0x20000046   0x08005286   0x00000002   PAD
    0x20000048   0x08005288   0x00000006   Data   RW         4051    .data               soilhumsensor.o
    0x2000004e   0x0800528e   0x00000001   Data   RW         4077    .data               pump.o
    0x2000004f   0x0800528f   0x00000002   Data   RW         4098    .data               valve1.o
    0x20000051   0x08005291   0x00000002   Data   RW         4119    .data               heatingcore.o
    0x20000053   0x08005293   0x00000002   Data   RW         4140    .data               valve2.o
    0x20000055   0x08005295   0x00000001   PAD
    0x20000056   0x08005296   0x00000007   Data   RW         4166    .data               _28byj48.o
    0x2000005d   0x0800529d   0x00000003   PAD
    0x20000060   0x080052a0   0x0000004c   Data   RW         4344    .data               interactwithtcp.o
    0x200000ac   0x080052ec   0x00000018   Data   RW         4985    .data               jansson_CM3LE.lib(value.o)
    0x200000c4   0x08005304   0x00000008   Data   RW         5526    .data               jansson_CM3LE.lib(memory.o)
    0x200000cc   0x0800530c   0x00000004   Data   RW         5692    .data               jansson_CM3LE.lib(hashtable_seed.o)
    0x200000d0   0x08005310   0x00000004   Data   RW         6069    .data               mc_w.l(errno.o)
    0x200000d4   0x08005314   0x00000004   Data   RW         6143    .data               mc_w.l(mvars.o)
    0x200000d8   0x08005318   0x00000004   Data   RW         6144    .data               mc_w.l(mvars.o)
    0x200000dc        -       0x000003e8   Zero   RW         3539    .bss                serial.o
    0x200004c4        -       0x00000053   Zero   RW         3665    .bss                dth11.o
    0x20000517   0x0800531c   0x00000001   PAD
    0x20000518        -       0x0000002c   Zero   RW         6138    .bss                mc_w.l(localtime_w.o)
    0x20000544   0x0800531c   0x00000004   PAD
    0x20000548        -       0x00000bb8   Zero   RW          131    HEAP                startup_stm32f10x_md.o
    0x20001100        -       0x00000400   Zero   RW          130    STACK               startup_stm32f10x_md.o


==============================================================================

Image component sizes


      Code (inc. data)   RO Data    RW Data    ZI Data      Debug   Object Name

       400         88         32          7          0       2984   _28byj48.o
         0          0          0          6          0        292   bh1750.o
         0          0          0          0          0       4532   core_cm3.o
        94          0          0          0          0       1320   delay.o
         0          0          0          8          0        325   ds18b20.o
        64         14          0         18         83       1543   dth11.o
        52         10          0          2          0        746   heatingcore.o
      2644        756          0         76          0       9388   interactwithtcp.o
         6          0          0          0          0        826   jansson_config.o
       120         16          0          2          0       1230   led.o
        92          8          0          0          0        427   main.o
         0          0          0          0          0     201656   misc.o
       204         16          0          2          0       1299   motor.o
       260         10          0         12          0       2875   myrtc.o
       814         22       1520          0          0       7153   oled.o
         0          0          0          6          0        315   phsensor.o
        52         10          0          1          0        673   pump.o
        32          0          0          0          0        916   pwm.o
       346         40          0          5       1000       3165   serial.o
         0          0          0          6          0        325   sgp30.o
         0          0          0          6          0        350   soilhumsensor.o
        36          8        236          0       4024        752   startup_stm32f10x_md.o
        56         10          0          0          0       2007   stm32f10x_bkp.o
       300          0          0          0          0      12045   stm32f10x_gpio.o
        26          0          0          0          0       3494   stm32f10x_it.o
        12          6          0          0          0        450   stm32f10x_pwr.o
       204         32          0          0          0       2977   stm32f10x_rcc.o
       176         34          0          0          0       3087   stm32f10x_rtc.o
        84          0          0          0          0      24214   stm32f10x_tim.o
       124          0          0          0          0       9094   stm32f10x_usart.o
       328         28          0          0          0      10025   system_stm32f10x.o
        52         10          0          2          0        737   valve1.o
        52         10          0          2          0        737   valve2.o

    ----------------------------------------------------------------------
      6638       1128       1820        172       5108     311959   Object Totals
         0          0         32          0          0          0   (incl. Generated)
         8          0          0         11          1          0   (incl. Padding)

    ----------------------------------------------------------------------

      Code (inc. data)   RO Data    RW Data    ZI Data      Debug   Library Member Name

        26          0          0          0          0       5280   dump.o
       154          4          0          0          0       6085   error.o
       996         32          0          0          0      17185   hashtable.o
        40          6          0          4          0       1280   hashtable_seed.o
      3288        680          0          0          0      19565   load.o
        68          8          0          8          0       5614   memory.o
         0          0          0          0          0        392   pack_unpack.o
       220          4          0          0          0       4432   strbuffer.o
       100         10          0          0          0       1151   strconv.o
       320         14          0          0          0       2507   utf.o
       866         32          0         24          0      22894   value.o
        28          0          0          0          0         80   strtod.o
       144          0          0          0          0         88   __strtoll.o
        28          0          0          0          0         68   _chval.o
        64          0          0          0          0         84   _sgetc.o
       194          0          0          0          0         96   _strtoull.o
         8          4        133          0          0         68   ctype_o.o
         0          0          0          0          0          0   entry.o
         0          0          0          0          0          0   entry10a.o
         0          0          0          0          0          0   entry11a.o
         8          4          0          0          0          0   entry2.o
         4          0          0          0          0          0   entry5.o
         0          0          0          0          0          0   entry7b.o
         0          0          0          0          0          0   entry8b.o
         8          4          0          0          0          0   entry9a.o
         8          4          0          4          0         68   errno.o
        30          0          0          0          0          0   handlers.o
        36          8          0          0          0         68   init.o
        18          0          0          0          0         76   isspace_o.o
         0          0          0          0          0          0   iusefp.o
        30          0          0          0          0         68   llshl.o
        36          0          0          0          0         68   llsshr.o
        32          0          0          0          0         68   llushr.o
       140          6         12          0          0         76   localtime_i.o
        12          6          0          0         44         68   localtime_w.o
       188         20          0          0          0        160   malloc.o
        20          0          0          0          0         68   memchr.o
        64          0          0          0          0         76   memmovea.o
        36          0          0          0          0        108   memseta.o
       168         18         12          0          0         80   mktime.o
         0          0          0          8          0          0   mvars.o
      2340         88          0          0          0        600   printfa.o
       878         12          0          0          0        216   scanf_fp.o
        24          0          0          0          0         68   strcat.o
        28          0          0          0          0         76   strcmp.o
        18          0          0          0          0         68   strcpy.o
        14          0          0          0          0         68   strlen.o
        36          0          0          0          0         80   strstr.o
       156         12          0          0          0        120   strtod.o
         4          0          0          0          0         68   strtoll.o
        44          0          0          0          0         80   uidiv.o
        98          0          0          0          0         92   uldiv.o
        48          0          0          0          0         68   cdcmple.o
        48          0          0          0          0         68   cdrcmple.o
        20          0          0          0          0         68   cfcmple.o
        20          0          0          0          0         68   cfrcmple.o
        56          0          0          0          0         88   d2f.o
       334          0          0          0          0        148   dadd.o
       222          0          0          0          0        100   ddiv.o
       186          0          0          0          0        176   depilogue.o
        50          0          0          0          0         76   dfixui.o
        48          0          0          0          0         68   dfixul.o
        24          0          0          0          0         76   dfltul.o
       228          0          0          0          0         96   dmul.o
       110          0          0          0          0        168   fepilogue.o

    ----------------------------------------------------------------------
     12438        976        160         48         48      90725   Library Totals
        22          0          3          0          4          0   (incl. Padding)

    ----------------------------------------------------------------------

      Code (inc. data)   RO Data    RW Data    ZI Data      Debug   Library Name

      6078        790          0         36          0      86385   jansson_CM3LE.lib
        28          0          0          0          0         80   m_ws.l
      4916        186        157         12         44       2992   mc_w.l
      1394          0          0          0          0       1268   mf_w.l

    ----------------------------------------------------------------------
     12438        976        160         48         48      90725   Library Totals

    ----------------------------------------------------------------------

==============================================================================


      Code (inc. data)   RO Data    RW Data    ZI Data      Debug   

     19076       2104       1980        220       5156     392792   Grand Totals
     19076       2104       1980        220       5156     392792   ELF Image Totals
     19076       2104       1980        220          0          0   ROM Totals

==============================================================================

    Total RO  Size (Code + RO Data)                21056 (  20.56kB)
    Total RW  Size (RW Data + ZI Data)              5376 (   5.25kB)
    Total ROM Size (Code + RO Data + RW Data)      21276 (  20.78kB)

==============================================================================

